
ProjectJoachimHUE.elf:     file format elf32-avr

Sections:
Idx Name          Size      VMA       LMA       File off  Algn
  0 .data         0000004a  00800200  00002b1c  00002bb0  2**0
                  CONTENTS, ALLOC, LOAD, DATA
  1 .text         00002b1c  00000000  00000000  00000094  2**1
                  CONTENTS, ALLOC, LOAD, READONLY, CODE
  2 .bss          00000009  0080024a  0080024a  00002bfa  2**0
                  ALLOC
  3 .comment      00000030  00000000  00000000  00002bfa  2**0
                  CONTENTS, READONLY
  4 .note.gnu.avr.deviceinfo 00000040  00000000  00000000  00002c2c  2**2
                  CONTENTS, READONLY
  5 .debug_aranges 00000158  00000000  00000000  00002c6c  2**0
                  CONTENTS, READONLY, DEBUGGING
  6 .debug_info   000020fd  00000000  00000000  00002dc4  2**0
                  CONTENTS, READONLY, DEBUGGING
  7 .debug_abbrev 000010a7  00000000  00000000  00004ec1  2**0
                  CONTENTS, READONLY, DEBUGGING
  8 .debug_line   000014a5  00000000  00000000  00005f68  2**0
                  CONTENTS, READONLY, DEBUGGING
  9 .debug_frame  00000474  00000000  00000000  00007410  2**2
                  CONTENTS, READONLY, DEBUGGING
 10 .debug_str    000007c1  00000000  00000000  00007884  2**0
                  CONTENTS, READONLY, DEBUGGING
 11 .debug_loc    000008e6  00000000  00000000  00008045  2**0
                  CONTENTS, READONLY, DEBUGGING
 12 .debug_ranges 00000130  00000000  00000000  0000892b  2**0
                  CONTENTS, READONLY, DEBUGGING

Disassembly of section .text:

00000000 <__vectors>:
       0:	e9 c0       	rjmp	.+466    	; 0x1d4 <__ctors_end>
       2:	00 00       	nop
       4:	08 c1       	rjmp	.+528    	; 0x216 <__bad_interrupt>
       6:	00 00       	nop
       8:	06 c1       	rjmp	.+524    	; 0x216 <__bad_interrupt>
       a:	00 00       	nop
       c:	04 c1       	rjmp	.+520    	; 0x216 <__bad_interrupt>
       e:	00 00       	nop
      10:	02 c1       	rjmp	.+516    	; 0x216 <__bad_interrupt>
      12:	00 00       	nop
      14:	00 c1       	rjmp	.+512    	; 0x216 <__bad_interrupt>
      16:	00 00       	nop
      18:	fe c0       	rjmp	.+508    	; 0x216 <__bad_interrupt>
      1a:	00 00       	nop
      1c:	fc c0       	rjmp	.+504    	; 0x216 <__bad_interrupt>
      1e:	00 00       	nop
      20:	fa c0       	rjmp	.+500    	; 0x216 <__bad_interrupt>
      22:	00 00       	nop
      24:	f8 c0       	rjmp	.+496    	; 0x216 <__bad_interrupt>
      26:	00 00       	nop
      28:	f6 c0       	rjmp	.+492    	; 0x216 <__bad_interrupt>
      2a:	00 00       	nop
      2c:	f4 c0       	rjmp	.+488    	; 0x216 <__bad_interrupt>
      2e:	00 00       	nop
      30:	f2 c0       	rjmp	.+484    	; 0x216 <__bad_interrupt>
      32:	00 00       	nop
      34:	f0 c0       	rjmp	.+480    	; 0x216 <__bad_interrupt>
      36:	00 00       	nop
      38:	ee c0       	rjmp	.+476    	; 0x216 <__bad_interrupt>
      3a:	00 00       	nop
      3c:	ec c0       	rjmp	.+472    	; 0x216 <__bad_interrupt>
      3e:	00 00       	nop
      40:	ea c0       	rjmp	.+468    	; 0x216 <__bad_interrupt>
      42:	00 00       	nop
      44:	e8 c0       	rjmp	.+464    	; 0x216 <__bad_interrupt>
      46:	00 00       	nop
      48:	e6 c0       	rjmp	.+460    	; 0x216 <__bad_interrupt>
      4a:	00 00       	nop
      4c:	e4 c0       	rjmp	.+456    	; 0x216 <__bad_interrupt>
      4e:	00 00       	nop
      50:	e2 c0       	rjmp	.+452    	; 0x216 <__bad_interrupt>
      52:	00 00       	nop
      54:	e0 c0       	rjmp	.+448    	; 0x216 <__bad_interrupt>
      56:	00 00       	nop
      58:	de c0       	rjmp	.+444    	; 0x216 <__bad_interrupt>
      5a:	00 00       	nop
      5c:	dc c0       	rjmp	.+440    	; 0x216 <__bad_interrupt>
      5e:	00 00       	nop
      60:	da c0       	rjmp	.+436    	; 0x216 <__bad_interrupt>
      62:	00 00       	nop
      64:	d8 c0       	rjmp	.+432    	; 0x216 <__bad_interrupt>
      66:	00 00       	nop
      68:	d6 c0       	rjmp	.+428    	; 0x216 <__bad_interrupt>
      6a:	00 00       	nop
      6c:	d4 c0       	rjmp	.+424    	; 0x216 <__bad_interrupt>
      6e:	00 00       	nop
      70:	d2 c0       	rjmp	.+420    	; 0x216 <__bad_interrupt>
      72:	00 00       	nop
      74:	d0 c0       	rjmp	.+416    	; 0x216 <__bad_interrupt>
      76:	00 00       	nop
      78:	ce c0       	rjmp	.+412    	; 0x216 <__bad_interrupt>
      7a:	00 00       	nop
      7c:	cc c0       	rjmp	.+408    	; 0x216 <__bad_interrupt>
      7e:	00 00       	nop
      80:	ca c0       	rjmp	.+404    	; 0x216 <__bad_interrupt>
      82:	00 00       	nop
      84:	c8 c0       	rjmp	.+400    	; 0x216 <__bad_interrupt>
      86:	00 00       	nop
      88:	c6 c0       	rjmp	.+396    	; 0x216 <__bad_interrupt>
      8a:	00 00       	nop
      8c:	c4 c0       	rjmp	.+392    	; 0x216 <__bad_interrupt>
      8e:	00 00       	nop
      90:	c2 c0       	rjmp	.+388    	; 0x216 <__bad_interrupt>
      92:	00 00       	nop
      94:	c0 c0       	rjmp	.+384    	; 0x216 <__bad_interrupt>
      96:	00 00       	nop
      98:	be c0       	rjmp	.+380    	; 0x216 <__bad_interrupt>
      9a:	00 00       	nop
      9c:	bc c0       	rjmp	.+376    	; 0x216 <__bad_interrupt>
      9e:	00 00       	nop
      a0:	ba c0       	rjmp	.+372    	; 0x216 <__bad_interrupt>
      a2:	00 00       	nop
      a4:	b8 c0       	rjmp	.+368    	; 0x216 <__bad_interrupt>
      a6:	00 00       	nop
      a8:	b6 c0       	rjmp	.+364    	; 0x216 <__bad_interrupt>
      aa:	00 00       	nop
      ac:	b4 c0       	rjmp	.+360    	; 0x216 <__bad_interrupt>
      ae:	00 00       	nop
      b0:	b2 c0       	rjmp	.+356    	; 0x216 <__bad_interrupt>
      b2:	00 00       	nop
      b4:	b0 c0       	rjmp	.+352    	; 0x216 <__bad_interrupt>
      b6:	00 00       	nop
      b8:	ae c0       	rjmp	.+348    	; 0x216 <__bad_interrupt>
      ba:	00 00       	nop
      bc:	ac c0       	rjmp	.+344    	; 0x216 <__bad_interrupt>
      be:	00 00       	nop
      c0:	aa c0       	rjmp	.+340    	; 0x216 <__bad_interrupt>
      c2:	00 00       	nop
      c4:	a8 c0       	rjmp	.+336    	; 0x216 <__bad_interrupt>
      c6:	00 00       	nop
      c8:	a6 c0       	rjmp	.+332    	; 0x216 <__bad_interrupt>
      ca:	00 00       	nop
      cc:	a4 c0       	rjmp	.+328    	; 0x216 <__bad_interrupt>
      ce:	00 00       	nop
      d0:	a2 c0       	rjmp	.+324    	; 0x216 <__bad_interrupt>
      d2:	00 00       	nop
      d4:	a0 c0       	rjmp	.+320    	; 0x216 <__bad_interrupt>
      d6:	00 00       	nop
      d8:	9e c0       	rjmp	.+316    	; 0x216 <__bad_interrupt>
      da:	00 00       	nop
      dc:	9c c0       	rjmp	.+312    	; 0x216 <__bad_interrupt>
      de:	00 00       	nop
      e0:	9a c0       	rjmp	.+308    	; 0x216 <__bad_interrupt>
      e2:	00 00       	nop
      e4:	b1 01       	movw	r22, r2
      e6:	e1 01       	movw	r28, r2
      e8:	e1 01       	movw	r28, r2
      ea:	e1 01       	movw	r28, r2
      ec:	bd 01       	movw	r22, r26
      ee:	e1 01       	movw	r28, r2
      f0:	c9 01       	movw	r24, r18
      f2:	d5 01       	movw	r26, r10
      f4:	e1 01       	movw	r28, r2
      f6:	e1 01       	movw	r28, r2
      f8:	e1 01       	movw	r28, r2
      fa:	e1 01       	movw	r28, r2
      fc:	e1 01       	movw	r28, r2
      fe:	e1 01       	movw	r28, r2
     100:	e1 01       	movw	r28, r2
     102:	e1 01       	movw	r28, r2
     104:	e1 01       	movw	r28, r2
     106:	e1 01       	movw	r28, r2
     108:	e1 01       	movw	r28, r2
     10a:	e1 01       	movw	r28, r2
     10c:	e1 01       	movw	r28, r2
     10e:	e1 01       	movw	r28, r2
     110:	e1 01       	movw	r28, r2
     112:	e1 01       	movw	r28, r2
     114:	e1 01       	movw	r28, r2
     116:	e1 01       	movw	r28, r2
     118:	e1 01       	movw	r28, r2
     11a:	e1 01       	movw	r28, r2
     11c:	e1 01       	movw	r28, r2
     11e:	e1 01       	movw	r28, r2
     120:	e1 01       	movw	r28, r2
     122:	e1 01       	movw	r28, r2
     124:	e1 01       	movw	r28, r2
     126:	e1 01       	movw	r28, r2
     128:	e1 01       	movw	r28, r2
     12a:	e1 01       	movw	r28, r2
     12c:	e1 01       	movw	r28, r2
     12e:	e1 01       	movw	r28, r2
     130:	e1 01       	movw	r28, r2
     132:	e1 01       	movw	r28, r2
     134:	e1 01       	movw	r28, r2
     136:	e1 01       	movw	r28, r2
     138:	e1 01       	movw	r28, r2
     13a:	e1 01       	movw	r28, r2
     13c:	e1 01       	movw	r28, r2
     13e:	e1 01       	movw	r28, r2
     140:	e1 01       	movw	r28, r2
     142:	e1 01       	movw	r28, r2
     144:	e1 01       	movw	r28, r2
     146:	e1 01       	movw	r28, r2
     148:	e1 01       	movw	r28, r2
     14a:	e1 01       	movw	r28, r2
     14c:	e1 01       	movw	r28, r2
     14e:	e1 01       	movw	r28, r2
     150:	e1 01       	movw	r28, r2
     152:	e1 01       	movw	r28, r2
     154:	e1 01       	movw	r28, r2
     156:	e1 01       	movw	r28, r2
     158:	e1 01       	movw	r28, r2
     15a:	e1 01       	movw	r28, r2
     15c:	e1 01       	movw	r28, r2
     15e:	e1 01       	movw	r28, r2
     160:	e1 01       	movw	r28, r2
     162:	e1 01       	movw	r28, r2
     164:	b4 01       	movw	r22, r8
     166:	e1 01       	movw	r28, r2
     168:	e1 01       	movw	r28, r2
     16a:	e1 01       	movw	r28, r2
     16c:	c0 01       	movw	r24, r0
     16e:	e1 01       	movw	r28, r2
     170:	cc 01       	movw	r24, r24
     172:	d8 01       	movw	r26, r16
     174:	e1 01       	movw	r28, r2
     176:	e1 01       	movw	r28, r2
     178:	e1 01       	movw	r28, r2
     17a:	e1 01       	movw	r28, r2
     17c:	e1 01       	movw	r28, r2
     17e:	e1 01       	movw	r28, r2
     180:	e1 01       	movw	r28, r2
     182:	e1 01       	movw	r28, r2
     184:	e1 01       	movw	r28, r2
     186:	e1 01       	movw	r28, r2
     188:	e1 01       	movw	r28, r2
     18a:	e1 01       	movw	r28, r2
     18c:	e1 01       	movw	r28, r2
     18e:	e1 01       	movw	r28, r2
     190:	e1 01       	movw	r28, r2
     192:	e1 01       	movw	r28, r2
     194:	e1 01       	movw	r28, r2
     196:	e1 01       	movw	r28, r2
     198:	e1 01       	movw	r28, r2
     19a:	e1 01       	movw	r28, r2
     19c:	e1 01       	movw	r28, r2
     19e:	e1 01       	movw	r28, r2
     1a0:	e1 01       	movw	r28, r2
     1a2:	e1 01       	movw	r28, r2
     1a4:	b7 01       	movw	r22, r14
     1a6:	e1 01       	movw	r28, r2
     1a8:	e1 01       	movw	r28, r2
     1aa:	e1 01       	movw	r28, r2
     1ac:	c3 01       	movw	r24, r6
     1ae:	e1 01       	movw	r28, r2
     1b0:	cf 01       	movw	r24, r30
     1b2:	db 01       	movw	r26, r22
     1b4:	e1 01       	movw	r28, r2
     1b6:	e1 01       	movw	r28, r2
     1b8:	e1 01       	movw	r28, r2
     1ba:	e1 01       	movw	r28, r2
     1bc:	e1 01       	movw	r28, r2
     1be:	e1 01       	movw	r28, r2
     1c0:	e1 01       	movw	r28, r2
     1c2:	e1 01       	movw	r28, r2
     1c4:	ba 01       	movw	r22, r20
     1c6:	e1 01       	movw	r28, r2
     1c8:	e1 01       	movw	r28, r2
     1ca:	e1 01       	movw	r28, r2
     1cc:	c6 01       	movw	r24, r12
     1ce:	e1 01       	movw	r28, r2
     1d0:	d2 01       	movw	r26, r4
     1d2:	de 01       	movw	r26, r28

000001d4 <__ctors_end>:
     1d4:	11 24       	eor	r1, r1
     1d6:	1f be       	out	0x3f, r1	; 63
     1d8:	cf ef       	ldi	r28, 0xFF	; 255
     1da:	d1 e2       	ldi	r29, 0x21	; 33
     1dc:	de bf       	out	0x3e, r29	; 62
     1de:	cd bf       	out	0x3d, r28	; 61
     1e0:	00 e0       	ldi	r16, 0x00	; 0
     1e2:	0c bf       	out	0x3c, r16	; 60

000001e4 <__do_copy_data>:
     1e4:	12 e0       	ldi	r17, 0x02	; 2
     1e6:	a0 e0       	ldi	r26, 0x00	; 0
     1e8:	b2 e0       	ldi	r27, 0x02	; 2
     1ea:	ec e1       	ldi	r30, 0x1C	; 28
     1ec:	fb e2       	ldi	r31, 0x2B	; 43
     1ee:	00 e0       	ldi	r16, 0x00	; 0
     1f0:	0b bf       	out	0x3b, r16	; 59
     1f2:	02 c0       	rjmp	.+4      	; 0x1f8 <__do_copy_data+0x14>
     1f4:	07 90       	elpm	r0, Z+
     1f6:	0d 92       	st	X+, r0
     1f8:	aa 34       	cpi	r26, 0x4A	; 74
     1fa:	b1 07       	cpc	r27, r17
     1fc:	d9 f7       	brne	.-10     	; 0x1f4 <__do_copy_data+0x10>

000001fe <__do_clear_bss>:
     1fe:	22 e0       	ldi	r18, 0x02	; 2
     200:	aa e4       	ldi	r26, 0x4A	; 74
     202:	b2 e0       	ldi	r27, 0x02	; 2
     204:	01 c0       	rjmp	.+2      	; 0x208 <.do_clear_bss_start>

00000206 <.do_clear_bss_loop>:
     206:	1d 92       	st	X+, r1

00000208 <.do_clear_bss_start>:
     208:	a3 35       	cpi	r26, 0x53	; 83
     20a:	b2 07       	cpc	r27, r18
     20c:	e1 f7       	brne	.-8      	; 0x206 <.do_clear_bss_loop>
     20e:	0e 94 21 10 	call	0x2042	; 0x2042 <main>
     212:	0c 94 8c 15 	jmp	0x2b18	; 0x2b18 <_exit>

00000216 <__bad_interrupt>:
     216:	f4 ce       	rjmp	.-536    	; 0x0 <__vectors>

00000218 <Keypad_Init>:
#include <util/delay.h>

char DecodeKey(char data);

void Keypad_Init()
{
     218:	cf 93       	push	r28
     21a:	df 93       	push	r29
     21c:	cd b7       	in	r28, 0x3d	; 61
     21e:	de b7       	in	r29, 0x3e	; 62
	DDRK = 0b00001111;		// Use PortK, upper nibble = input (rows), lower nibble = output (columns)
     220:	87 e0       	ldi	r24, 0x07	; 7
     222:	91 e0       	ldi	r25, 0x01	; 1
     224:	2f e0       	ldi	r18, 0x0F	; 15
     226:	fc 01       	movw	r30, r24
     228:	20 83       	st	Z, r18
	PORTK |= 0b11110000;	// Enable Pull-up on Row pins (upper nibble)
     22a:	88 e0       	ldi	r24, 0x08	; 8
     22c:	91 e0       	ldi	r25, 0x01	; 1
     22e:	28 e0       	ldi	r18, 0x08	; 8
     230:	31 e0       	ldi	r19, 0x01	; 1
     232:	f9 01       	movw	r30, r18
     234:	20 81       	ld	r18, Z
     236:	20 6f       	ori	r18, 0xF0	; 240
     238:	fc 01       	movw	r30, r24
     23a:	20 83       	st	Z, r18
}
     23c:	00 00       	nop
     23e:	df 91       	pop	r29
     240:	cf 91       	pop	r28
     242:	08 95       	ret

00000244 <ColumnScan>:

void ColumnScan()
{
     244:	cf 93       	push	r28
     246:	df 93       	push	r29
     248:	1f 92       	push	r1
     24a:	cd b7       	in	r28, 0x3d	; 61
     24c:	de b7       	in	r29, 0x3e	; 62
	static int columnCounter = 1;			// Value 1 - 4 represents selected Column
	
	char portBuffer = PORTK & 0b11110000;	// Prevents glitches in bit manipulation, clear all column bits
     24e:	88 e0       	ldi	r24, 0x08	; 8
     250:	91 e0       	ldi	r25, 0x01	; 1
     252:	fc 01       	movw	r30, r24
     254:	80 81       	ld	r24, Z
     256:	80 7f       	andi	r24, 0xF0	; 240
     258:	89 83       	std	Y+1, r24	; 0x01
	
	switch (columnCounter)
     25a:	80 91 00 02 	lds	r24, 0x0200	; 0x800200 <__DATA_REGION_ORIGIN__>
     25e:	90 91 01 02 	lds	r25, 0x0201	; 0x800201 <__DATA_REGION_ORIGIN__+0x1>
     262:	82 30       	cpi	r24, 0x02	; 2
     264:	91 05       	cpc	r25, r1
     266:	a9 f0       	breq	.+42     	; 0x292 <ColumnScan+0x4e>
     268:	83 30       	cpi	r24, 0x03	; 3
     26a:	91 05       	cpc	r25, r1
     26c:	1c f4       	brge	.+6      	; 0x274 <ColumnScan+0x30>
     26e:	01 97       	sbiw	r24, 0x01	; 1
     270:	39 f0       	breq	.+14     	; 0x280 <ColumnScan+0x3c>
     272:	2a c0       	rjmp	.+84     	; 0x2c8 <ColumnScan+0x84>
     274:	83 30       	cpi	r24, 0x03	; 3
     276:	91 05       	cpc	r25, r1
     278:	a9 f0       	breq	.+42     	; 0x2a4 <ColumnScan+0x60>
     27a:	04 97       	sbiw	r24, 0x04	; 4
     27c:	e1 f0       	breq	.+56     	; 0x2b6 <ColumnScan+0x72>
     27e:	24 c0       	rjmp	.+72     	; 0x2c8 <ColumnScan+0x84>
	{
		case 1:
		portBuffer |= 0b00000111;			// reset C1
     280:	89 81       	ldd	r24, Y+1	; 0x01
     282:	87 60       	ori	r24, 0x07	; 7
     284:	89 83       	std	Y+1, r24	; 0x01
		PORTK = portBuffer;
     286:	88 e0       	ldi	r24, 0x08	; 8
     288:	91 e0       	ldi	r25, 0x01	; 1
     28a:	29 81       	ldd	r18, Y+1	; 0x01
     28c:	fc 01       	movw	r30, r24
     28e:	20 83       	st	Z, r18
		break;
     290:	1b c0       	rjmp	.+54     	; 0x2c8 <ColumnScan+0x84>
		case 2:
		portBuffer |= 0b00001011;			// reset C2
     292:	89 81       	ldd	r24, Y+1	; 0x01
     294:	8b 60       	ori	r24, 0x0B	; 11
     296:	89 83       	std	Y+1, r24	; 0x01
		PORTK = portBuffer;
     298:	88 e0       	ldi	r24, 0x08	; 8
     29a:	91 e0       	ldi	r25, 0x01	; 1
     29c:	29 81       	ldd	r18, Y+1	; 0x01
     29e:	fc 01       	movw	r30, r24
     2a0:	20 83       	st	Z, r18
		break;
     2a2:	12 c0       	rjmp	.+36     	; 0x2c8 <ColumnScan+0x84>
		case 3:
		portBuffer |= 0b00001101;			// reset C3
     2a4:	89 81       	ldd	r24, Y+1	; 0x01
     2a6:	8d 60       	ori	r24, 0x0D	; 13
     2a8:	89 83       	std	Y+1, r24	; 0x01
		PORTK = portBuffer;
     2aa:	88 e0       	ldi	r24, 0x08	; 8
     2ac:	91 e0       	ldi	r25, 0x01	; 1
     2ae:	29 81       	ldd	r18, Y+1	; 0x01
     2b0:	fc 01       	movw	r30, r24
     2b2:	20 83       	st	Z, r18
		break;
     2b4:	09 c0       	rjmp	.+18     	; 0x2c8 <ColumnScan+0x84>
		case 4:
		portBuffer |= 0b00001110;			// reset C4
     2b6:	89 81       	ldd	r24, Y+1	; 0x01
     2b8:	8e 60       	ori	r24, 0x0E	; 14
     2ba:	89 83       	std	Y+1, r24	; 0x01
		PORTK = portBuffer;
     2bc:	88 e0       	ldi	r24, 0x08	; 8
     2be:	91 e0       	ldi	r25, 0x01	; 1
     2c0:	29 81       	ldd	r18, Y+1	; 0x01
     2c2:	fc 01       	movw	r30, r24
     2c4:	20 83       	st	Z, r18
		break;
     2c6:	00 00       	nop
	}
	columnCounter++;
     2c8:	80 91 00 02 	lds	r24, 0x0200	; 0x800200 <__DATA_REGION_ORIGIN__>
     2cc:	90 91 01 02 	lds	r25, 0x0201	; 0x800201 <__DATA_REGION_ORIGIN__+0x1>
     2d0:	01 96       	adiw	r24, 0x01	; 1
     2d2:	90 93 01 02 	sts	0x0201, r25	; 0x800201 <__DATA_REGION_ORIGIN__+0x1>
     2d6:	80 93 00 02 	sts	0x0200, r24	; 0x800200 <__DATA_REGION_ORIGIN__>
	if (columnCounter > 4)
     2da:	80 91 00 02 	lds	r24, 0x0200	; 0x800200 <__DATA_REGION_ORIGIN__>
     2de:	90 91 01 02 	lds	r25, 0x0201	; 0x800201 <__DATA_REGION_ORIGIN__+0x1>
     2e2:	05 97       	sbiw	r24, 0x05	; 5
     2e4:	34 f0       	brlt	.+12     	; 0x2f2 <ColumnScan+0xae>
	{
		columnCounter = 1;					// Reset back to first Column
     2e6:	81 e0       	ldi	r24, 0x01	; 1
     2e8:	90 e0       	ldi	r25, 0x00	; 0
     2ea:	90 93 01 02 	sts	0x0201, r25	; 0x800201 <__DATA_REGION_ORIGIN__+0x1>
     2ee:	80 93 00 02 	sts	0x0200, r24	; 0x800200 <__DATA_REGION_ORIGIN__>
	}
}
     2f2:	00 00       	nop
     2f4:	0f 90       	pop	r0
     2f6:	df 91       	pop	r29
     2f8:	cf 91       	pop	r28
     2fa:	08 95       	ret

000002fc <ReadRows>:

char ReadRows()
{
     2fc:	cf 93       	push	r28
     2fe:	df 93       	push	r29
     300:	1f 92       	push	r1
     302:	cd b7       	in	r28, 0x3d	; 61
     304:	de b7       	in	r29, 0x3e	; 62
	char pinRead = PINK;
     306:	86 e0       	ldi	r24, 0x06	; 6
     308:	91 e0       	ldi	r25, 0x01	; 1
     30a:	fc 01       	movw	r30, r24
     30c:	80 81       	ld	r24, Z
     30e:	89 83       	std	Y+1, r24	; 0x01
	if (pinRead < 0xF0)			// test for a row line going low
     310:	89 81       	ldd	r24, Y+1	; 0x01
     312:	80 3f       	cpi	r24, 0xF0	; 240
     314:	18 f4       	brcc	.+6      	; 0x31c <ReadRows+0x20>
	{
		return DecodeKey(pinRead);
     316:	89 81       	ldd	r24, Y+1	; 0x01
     318:	06 d0       	rcall	.+12     	; 0x326 <DecodeKey>
     31a:	01 c0       	rjmp	.+2      	; 0x31e <ReadRows+0x22>
	}
	return '.';
     31c:	8e e2       	ldi	r24, 0x2E	; 46
}
     31e:	0f 90       	pop	r0
     320:	df 91       	pop	r29
     322:	cf 91       	pop	r28
     324:	08 95       	ret

00000326 <DecodeKey>:

char DecodeKey(char data)
{
     326:	cf 93       	push	r28
     328:	df 93       	push	r29
     32a:	1f 92       	push	r1
     32c:	1f 92       	push	r1
     32e:	cd b7       	in	r28, 0x3d	; 61
     330:	de b7       	in	r29, 0x3e	; 62
     332:	8a 83       	std	Y+2, r24	; 0x02
	char key;
	switch (data)
     334:	8a 81       	ldd	r24, Y+2	; 0x02
     336:	88 2f       	mov	r24, r24
     338:	90 e0       	ldi	r25, 0x00	; 0
     33a:	09 2e       	mov	r0, r25
     33c:	00 0c       	add	r0, r0
     33e:	aa 0b       	sbc	r26, r26
     340:	bb 0b       	sbc	r27, r27
     342:	47 e7       	ldi	r20, 0x77	; 119
     344:	50 e0       	ldi	r21, 0x00	; 0
     346:	27 e7       	ldi	r18, 0x77	; 119
     348:	30 e0       	ldi	r19, 0x00	; 0
     34a:	84 1b       	sub	r24, r20
     34c:	95 0b       	sbc	r25, r21
     34e:	28 17       	cp	r18, r24
     350:	39 07       	cpc	r19, r25
     352:	b8 f1       	brcs	.+110    	; 0x3c2 <DecodeKey+0x9c>
     354:	fc 01       	movw	r30, r24
     356:	88 27       	eor	r24, r24
     358:	ee 58       	subi	r30, 0x8E	; 142
     35a:	ff 4f       	sbci	r31, 0xFF	; 255
     35c:	8f 4f       	sbci	r24, 0xFF	; 255
     35e:	0c 94 47 15 	jmp	0x2a8e	; 0x2a8e <__tablejump2__>
	{
		case 0b01110111: key = '1'; break;
     362:	81 e3       	ldi	r24, 0x31	; 49
     364:	89 83       	std	Y+1, r24	; 0x01
     366:	30 c0       	rjmp	.+96     	; 0x3c8 <DecodeKey+0xa2>
		case 0b10110111: key = '4'; break;
     368:	84 e3       	ldi	r24, 0x34	; 52
     36a:	89 83       	std	Y+1, r24	; 0x01
     36c:	2d c0       	rjmp	.+90     	; 0x3c8 <DecodeKey+0xa2>
		case 0b11010111: key = '7'; break;
     36e:	87 e3       	ldi	r24, 0x37	; 55
     370:	89 83       	std	Y+1, r24	; 0x01
     372:	2a c0       	rjmp	.+84     	; 0x3c8 <DecodeKey+0xa2>
		case 0b11100111: key = '*'; break;
     374:	8a e2       	ldi	r24, 0x2A	; 42
     376:	89 83       	std	Y+1, r24	; 0x01
     378:	27 c0       	rjmp	.+78     	; 0x3c8 <DecodeKey+0xa2>
		case 0b01111011: key = '2'; break;
     37a:	82 e3       	ldi	r24, 0x32	; 50
     37c:	89 83       	std	Y+1, r24	; 0x01
     37e:	24 c0       	rjmp	.+72     	; 0x3c8 <DecodeKey+0xa2>
		case 0b10111011: key = '5'; break;
     380:	85 e3       	ldi	r24, 0x35	; 53
     382:	89 83       	std	Y+1, r24	; 0x01
     384:	21 c0       	rjmp	.+66     	; 0x3c8 <DecodeKey+0xa2>
		case 0b11011011: key = '8'; break;
     386:	88 e3       	ldi	r24, 0x38	; 56
     388:	89 83       	std	Y+1, r24	; 0x01
     38a:	1e c0       	rjmp	.+60     	; 0x3c8 <DecodeKey+0xa2>
		case 0b11101011: key = '0'; break;
     38c:	80 e3       	ldi	r24, 0x30	; 48
     38e:	89 83       	std	Y+1, r24	; 0x01
     390:	1b c0       	rjmp	.+54     	; 0x3c8 <DecodeKey+0xa2>
		case 0b01111101: key = '3'; break;
     392:	83 e3       	ldi	r24, 0x33	; 51
     394:	89 83       	std	Y+1, r24	; 0x01
     396:	18 c0       	rjmp	.+48     	; 0x3c8 <DecodeKey+0xa2>
		case 0b10111101: key = '6'; break;
     398:	86 e3       	ldi	r24, 0x36	; 54
     39a:	89 83       	std	Y+1, r24	; 0x01
     39c:	15 c0       	rjmp	.+42     	; 0x3c8 <DecodeKey+0xa2>
		case 0b11011101: key = '9'; break;
     39e:	89 e3       	ldi	r24, 0x39	; 57
     3a0:	89 83       	std	Y+1, r24	; 0x01
     3a2:	12 c0       	rjmp	.+36     	; 0x3c8 <DecodeKey+0xa2>
		case 0b11101101: key = '#'; break;
     3a4:	83 e2       	ldi	r24, 0x23	; 35
     3a6:	89 83       	std	Y+1, r24	; 0x01
     3a8:	0f c0       	rjmp	.+30     	; 0x3c8 <DecodeKey+0xa2>
		case 0b01111110: key = 'A'; break;
     3aa:	81 e4       	ldi	r24, 0x41	; 65
     3ac:	89 83       	std	Y+1, r24	; 0x01
     3ae:	0c c0       	rjmp	.+24     	; 0x3c8 <DecodeKey+0xa2>
		case 0b10111110: key = 'B'; break;
     3b0:	82 e4       	ldi	r24, 0x42	; 66
     3b2:	89 83       	std	Y+1, r24	; 0x01
     3b4:	09 c0       	rjmp	.+18     	; 0x3c8 <DecodeKey+0xa2>
		case 0b11011110: key = 'C'; break;
     3b6:	83 e4       	ldi	r24, 0x43	; 67
     3b8:	89 83       	std	Y+1, r24	; 0x01
     3ba:	06 c0       	rjmp	.+12     	; 0x3c8 <DecodeKey+0xa2>
		case 0b11101110: key = 'D'; break;
     3bc:	84 e4       	ldi	r24, 0x44	; 68
     3be:	89 83       	std	Y+1, r24	; 0x01
     3c0:	03 c0       	rjmp	.+6      	; 0x3c8 <DecodeKey+0xa2>
		default:         key = '.'; break;
     3c2:	8e e2       	ldi	r24, 0x2E	; 46
     3c4:	89 83       	std	Y+1, r24	; 0x01
     3c6:	00 00       	nop
	}
	return key;
     3c8:	89 81       	ldd	r24, Y+1	; 0x01
}
     3ca:	0f 90       	pop	r0
     3cc:	0f 90       	pop	r0
     3ce:	df 91       	pop	r29
     3d0:	cf 91       	pop	r28
     3d2:	08 95       	ret

000003d4 <toggle_e>:

    while ( (c = pgm_read_byte(progmem_s++)) ) {
        lcd_putc(c);
    }

}/* lcd_puts_p */
     3d4:	cf 93       	push	r28
     3d6:	df 93       	push	r29
     3d8:	cd b7       	in	r28, 0x3d	; 61
     3da:	de b7       	in	r29, 0x3e	; 62
     3dc:	a0 97       	sbiw	r28, 0x20	; 32
     3de:	0f b6       	in	r0, 0x3f	; 63
     3e0:	f8 94       	cli
     3e2:	de bf       	out	0x3e, r29	; 62
     3e4:	0f be       	out	0x3f, r0	; 63
     3e6:	cd bf       	out	0x3d, r28	; 61
     3e8:	82 e0       	ldi	r24, 0x02	; 2
     3ea:	91 e0       	ldi	r25, 0x01	; 1
     3ec:	22 e0       	ldi	r18, 0x02	; 2
     3ee:	31 e0       	ldi	r19, 0x01	; 1
     3f0:	f9 01       	movw	r30, r18
     3f2:	20 81       	ld	r18, Z
     3f4:	20 62       	ori	r18, 0x20	; 32
     3f6:	fc 01       	movw	r30, r24
     3f8:	20 83       	st	Z, r18
     3fa:	80 e0       	ldi	r24, 0x00	; 0
     3fc:	90 e0       	ldi	r25, 0x00	; 0
     3fe:	a0 e8       	ldi	r26, 0x80	; 128
     400:	bf e3       	ldi	r27, 0x3F	; 63
     402:	89 83       	std	Y+1, r24	; 0x01
     404:	9a 83       	std	Y+2, r25	; 0x02
     406:	ab 83       	std	Y+3, r26	; 0x03
     408:	bc 83       	std	Y+4, r27	; 0x04
     40a:	2b ea       	ldi	r18, 0xAB	; 171
     40c:	3a ea       	ldi	r19, 0xAA	; 170
     40e:	4a ea       	ldi	r20, 0xAA	; 170
     410:	5e e3       	ldi	r21, 0x3E	; 62
     412:	69 81       	ldd	r22, Y+1	; 0x01
     414:	7a 81       	ldd	r23, Y+2	; 0x02
     416:	8b 81       	ldd	r24, Y+3	; 0x03
     418:	9c 81       	ldd	r25, Y+4	; 0x04
     41a:	0e 94 e4 14 	call	0x29c8	; 0x29c8 <__mulsf3>
     41e:	dc 01       	movw	r26, r24
     420:	cb 01       	movw	r24, r22
     422:	8d 83       	std	Y+5, r24	; 0x05
     424:	9e 83       	std	Y+6, r25	; 0x06
     426:	af 83       	std	Y+7, r26	; 0x07
     428:	b8 87       	std	Y+8, r27	; 0x08
     42a:	20 e0       	ldi	r18, 0x00	; 0
     42c:	30 e0       	ldi	r19, 0x00	; 0
     42e:	40 e8       	ldi	r20, 0x80	; 128
     430:	5e e3       	ldi	r21, 0x3E	; 62
     432:	69 81       	ldd	r22, Y+1	; 0x01
     434:	7a 81       	ldd	r23, Y+2	; 0x02
     436:	8b 81       	ldd	r24, Y+3	; 0x03
     438:	9c 81       	ldd	r25, Y+4	; 0x04
     43a:	0e 94 e4 14 	call	0x29c8	; 0x29c8 <__mulsf3>
     43e:	dc 01       	movw	r26, r24
     440:	cb 01       	movw	r24, r22
     442:	89 87       	std	Y+9, r24	; 0x09
     444:	9a 87       	std	Y+10, r25	; 0x0a
     446:	ab 87       	std	Y+11, r26	; 0x0b
     448:	bc 87       	std	Y+12, r27	; 0x0c
     44a:	20 e0       	ldi	r18, 0x00	; 0
     44c:	30 e0       	ldi	r19, 0x00	; 0
     44e:	40 e8       	ldi	r20, 0x80	; 128
     450:	5f e3       	ldi	r21, 0x3F	; 63
     452:	6d 81       	ldd	r22, Y+5	; 0x05
     454:	7e 81       	ldd	r23, Y+6	; 0x06
     456:	8f 81       	ldd	r24, Y+7	; 0x07
     458:	98 85       	ldd	r25, Y+8	; 0x08
     45a:	0e 94 d3 13 	call	0x27a6	; 0x27a6 <__cmpsf2>
     45e:	88 23       	and	r24, r24
     460:	1c f4       	brge	.+6      	; 0x468 <__LOCK_REGION_LENGTH__+0x68>
     462:	81 e0       	ldi	r24, 0x01	; 1
     464:	8d 87       	std	Y+13, r24	; 0x0d
     466:	b2 c0       	rjmp	.+356    	; 0x5cc <__LOCK_REGION_LENGTH__+0x1cc>
     468:	20 e0       	ldi	r18, 0x00	; 0
     46a:	3f ef       	ldi	r19, 0xFF	; 255
     46c:	4f e7       	ldi	r20, 0x7F	; 127
     46e:	57 e4       	ldi	r21, 0x47	; 71
     470:	69 85       	ldd	r22, Y+9	; 0x09
     472:	7a 85       	ldd	r23, Y+10	; 0x0a
     474:	8b 85       	ldd	r24, Y+11	; 0x0b
     476:	9c 85       	ldd	r25, Y+12	; 0x0c
     478:	0e 94 e0 14 	call	0x29c0	; 0x29c0 <__gesf2>
     47c:	18 16       	cp	r1, r24
     47e:	0c f0       	brlt	.+2      	; 0x482 <__LOCK_REGION_LENGTH__+0x82>
     480:	7b c0       	rjmp	.+246    	; 0x578 <__LOCK_REGION_LENGTH__+0x178>
     482:	20 e0       	ldi	r18, 0x00	; 0
     484:	30 e0       	ldi	r19, 0x00	; 0
     486:	4a e7       	ldi	r20, 0x7A	; 122
     488:	54 e4       	ldi	r21, 0x44	; 68
     48a:	69 81       	ldd	r22, Y+1	; 0x01
     48c:	7a 81       	ldd	r23, Y+2	; 0x02
     48e:	8b 81       	ldd	r24, Y+3	; 0x03
     490:	9c 81       	ldd	r25, Y+4	; 0x04
     492:	0e 94 d7 13 	call	0x27ae	; 0x27ae <__divsf3>
     496:	dc 01       	movw	r26, r24
     498:	cb 01       	movw	r24, r22
     49a:	8e 87       	std	Y+14, r24	; 0x0e
     49c:	9f 87       	std	Y+15, r25	; 0x0f
     49e:	a8 8b       	std	Y+16, r26	; 0x10
     4a0:	b9 8b       	std	Y+17, r27	; 0x11
     4a2:	20 e0       	ldi	r18, 0x00	; 0
     4a4:	30 e0       	ldi	r19, 0x00	; 0
     4a6:	4a e7       	ldi	r20, 0x7A	; 122
     4a8:	53 e4       	ldi	r21, 0x43	; 67
     4aa:	6e 85       	ldd	r22, Y+14	; 0x0e
     4ac:	7f 85       	ldd	r23, Y+15	; 0x0f
     4ae:	88 89       	ldd	r24, Y+16	; 0x10
     4b0:	99 89       	ldd	r25, Y+17	; 0x11
     4b2:	0e 94 e4 14 	call	0x29c8	; 0x29c8 <__mulsf3>
     4b6:	dc 01       	movw	r26, r24
     4b8:	cb 01       	movw	r24, r22
     4ba:	8a 8b       	std	Y+18, r24	; 0x12
     4bc:	9b 8b       	std	Y+19, r25	; 0x13
     4be:	ac 8b       	std	Y+20, r26	; 0x14
     4c0:	bd 8b       	std	Y+21, r27	; 0x15
     4c2:	20 e0       	ldi	r18, 0x00	; 0
     4c4:	30 e0       	ldi	r19, 0x00	; 0
     4c6:	40 e8       	ldi	r20, 0x80	; 128
     4c8:	5f e3       	ldi	r21, 0x3F	; 63
     4ca:	6a 89       	ldd	r22, Y+18	; 0x12
     4cc:	7b 89       	ldd	r23, Y+19	; 0x13
     4ce:	8c 89       	ldd	r24, Y+20	; 0x14
     4d0:	9d 89       	ldd	r25, Y+21	; 0x15
     4d2:	0e 94 d3 13 	call	0x27a6	; 0x27a6 <__cmpsf2>
     4d6:	88 23       	and	r24, r24
     4d8:	2c f4       	brge	.+10     	; 0x4e4 <__LOCK_REGION_LENGTH__+0xe4>
     4da:	81 e0       	ldi	r24, 0x01	; 1
     4dc:	90 e0       	ldi	r25, 0x00	; 0
     4de:	9f 8b       	std	Y+23, r25	; 0x17
     4e0:	8e 8b       	std	Y+22, r24	; 0x16
     4e2:	3f c0       	rjmp	.+126    	; 0x562 <__LOCK_REGION_LENGTH__+0x162>
     4e4:	20 e0       	ldi	r18, 0x00	; 0
     4e6:	3f ef       	ldi	r19, 0xFF	; 255
     4e8:	4f e7       	ldi	r20, 0x7F	; 127
     4ea:	57 e4       	ldi	r21, 0x47	; 71
     4ec:	6a 89       	ldd	r22, Y+18	; 0x12
     4ee:	7b 89       	ldd	r23, Y+19	; 0x13
     4f0:	8c 89       	ldd	r24, Y+20	; 0x14
     4f2:	9d 89       	ldd	r25, Y+21	; 0x15
     4f4:	0e 94 e0 14 	call	0x29c0	; 0x29c0 <__gesf2>
     4f8:	18 16       	cp	r1, r24
     4fa:	4c f5       	brge	.+82     	; 0x54e <__LOCK_REGION_LENGTH__+0x14e>
     4fc:	20 e0       	ldi	r18, 0x00	; 0
     4fe:	30 e0       	ldi	r19, 0x00	; 0
     500:	40 e2       	ldi	r20, 0x20	; 32
     502:	51 e4       	ldi	r21, 0x41	; 65
     504:	6e 85       	ldd	r22, Y+14	; 0x0e
     506:	7f 85       	ldd	r23, Y+15	; 0x0f
     508:	88 89       	ldd	r24, Y+16	; 0x10
     50a:	99 89       	ldd	r25, Y+17	; 0x11
     50c:	0e 94 e4 14 	call	0x29c8	; 0x29c8 <__mulsf3>
     510:	dc 01       	movw	r26, r24
     512:	cb 01       	movw	r24, r22
     514:	bc 01       	movw	r22, r24
     516:	cd 01       	movw	r24, r26
     518:	0e 94 3f 14 	call	0x287e	; 0x287e <__fixunssfsi>
     51c:	dc 01       	movw	r26, r24
     51e:	cb 01       	movw	r24, r22
     520:	9f 8b       	std	Y+23, r25	; 0x17
     522:	8e 8b       	std	Y+22, r24	; 0x16
     524:	0f c0       	rjmp	.+30     	; 0x544 <__LOCK_REGION_LENGTH__+0x144>
     526:	89 e1       	ldi	r24, 0x19	; 25
     528:	90 e0       	ldi	r25, 0x00	; 0
     52a:	99 8f       	std	Y+25, r25	; 0x19
     52c:	88 8f       	std	Y+24, r24	; 0x18
     52e:	88 8d       	ldd	r24, Y+24	; 0x18
     530:	99 8d       	ldd	r25, Y+25	; 0x19
     532:	01 97       	sbiw	r24, 0x01	; 1
     534:	f1 f7       	brne	.-4      	; 0x532 <__LOCK_REGION_LENGTH__+0x132>
     536:	99 8f       	std	Y+25, r25	; 0x19
     538:	88 8f       	std	Y+24, r24	; 0x18
     53a:	8e 89       	ldd	r24, Y+22	; 0x16
     53c:	9f 89       	ldd	r25, Y+23	; 0x17
     53e:	01 97       	sbiw	r24, 0x01	; 1
     540:	9f 8b       	std	Y+23, r25	; 0x17
     542:	8e 8b       	std	Y+22, r24	; 0x16
     544:	8e 89       	ldd	r24, Y+22	; 0x16
     546:	9f 89       	ldd	r25, Y+23	; 0x17
     548:	89 2b       	or	r24, r25
     54a:	69 f7       	brne	.-38     	; 0x526 <__LOCK_REGION_LENGTH__+0x126>
     54c:	3f c0       	rjmp	.+126    	; 0x5cc <__LOCK_REGION_LENGTH__+0x1cc>
     54e:	6a 89       	ldd	r22, Y+18	; 0x12
     550:	7b 89       	ldd	r23, Y+19	; 0x13
     552:	8c 89       	ldd	r24, Y+20	; 0x14
     554:	9d 89       	ldd	r25, Y+21	; 0x15
     556:	0e 94 3f 14 	call	0x287e	; 0x287e <__fixunssfsi>
     55a:	dc 01       	movw	r26, r24
     55c:	cb 01       	movw	r24, r22
     55e:	9f 8b       	std	Y+23, r25	; 0x17
     560:	8e 8b       	std	Y+22, r24	; 0x16
     562:	8e 89       	ldd	r24, Y+22	; 0x16
     564:	9f 89       	ldd	r25, Y+23	; 0x17
     566:	9b 8f       	std	Y+27, r25	; 0x1b
     568:	8a 8f       	std	Y+26, r24	; 0x1a
     56a:	8a 8d       	ldd	r24, Y+26	; 0x1a
     56c:	9b 8d       	ldd	r25, Y+27	; 0x1b
     56e:	01 97       	sbiw	r24, 0x01	; 1
     570:	f1 f7       	brne	.-4      	; 0x56e <__LOCK_REGION_LENGTH__+0x16e>
     572:	9b 8f       	std	Y+27, r25	; 0x1b
     574:	8a 8f       	std	Y+26, r24	; 0x1a
     576:	2a c0       	rjmp	.+84     	; 0x5cc <__LOCK_REGION_LENGTH__+0x1cc>
     578:	20 e0       	ldi	r18, 0x00	; 0
     57a:	30 e0       	ldi	r19, 0x00	; 0
     57c:	4f e7       	ldi	r20, 0x7F	; 127
     57e:	53 e4       	ldi	r21, 0x43	; 67
     580:	6d 81       	ldd	r22, Y+5	; 0x05
     582:	7e 81       	ldd	r23, Y+6	; 0x06
     584:	8f 81       	ldd	r24, Y+7	; 0x07
     586:	98 85       	ldd	r25, Y+8	; 0x08
     588:	0e 94 e0 14 	call	0x29c0	; 0x29c0 <__gesf2>
     58c:	18 16       	cp	r1, r24
     58e:	ac f4       	brge	.+42     	; 0x5ba <__LOCK_REGION_LENGTH__+0x1ba>
     590:	69 85       	ldd	r22, Y+9	; 0x09
     592:	7a 85       	ldd	r23, Y+10	; 0x0a
     594:	8b 85       	ldd	r24, Y+11	; 0x0b
     596:	9c 85       	ldd	r25, Y+12	; 0x0c
     598:	0e 94 3f 14 	call	0x287e	; 0x287e <__fixunssfsi>
     59c:	dc 01       	movw	r26, r24
     59e:	cb 01       	movw	r24, r22
     5a0:	9d 8f       	std	Y+29, r25	; 0x1d
     5a2:	8c 8f       	std	Y+28, r24	; 0x1c
     5a4:	8c 8d       	ldd	r24, Y+28	; 0x1c
     5a6:	9d 8d       	ldd	r25, Y+29	; 0x1d
     5a8:	9f 8f       	std	Y+31, r25	; 0x1f
     5aa:	8e 8f       	std	Y+30, r24	; 0x1e
     5ac:	8e 8d       	ldd	r24, Y+30	; 0x1e
     5ae:	9f 8d       	ldd	r25, Y+31	; 0x1f
     5b0:	01 97       	sbiw	r24, 0x01	; 1
     5b2:	f1 f7       	brne	.-4      	; 0x5b0 <__LOCK_REGION_LENGTH__+0x1b0>
     5b4:	9f 8f       	std	Y+31, r25	; 0x1f
     5b6:	8e 8f       	std	Y+30, r24	; 0x1e
     5b8:	0f c0       	rjmp	.+30     	; 0x5d8 <__LOCK_REGION_LENGTH__+0x1d8>
     5ba:	6d 81       	ldd	r22, Y+5	; 0x05
     5bc:	7e 81       	ldd	r23, Y+6	; 0x06
     5be:	8f 81       	ldd	r24, Y+7	; 0x07
     5c0:	98 85       	ldd	r25, Y+8	; 0x08
     5c2:	0e 94 3f 14 	call	0x287e	; 0x287e <__fixunssfsi>
     5c6:	dc 01       	movw	r26, r24
     5c8:	cb 01       	movw	r24, r22
     5ca:	8d 87       	std	Y+13, r24	; 0x0d
     5cc:	8d 85       	ldd	r24, Y+13	; 0x0d
     5ce:	88 a3       	std	Y+32, r24	; 0x20
     5d0:	88 a1       	ldd	r24, Y+32	; 0x20
     5d2:	8a 95       	dec	r24
     5d4:	f1 f7       	brne	.-4      	; 0x5d2 <__LOCK_REGION_LENGTH__+0x1d2>
     5d6:	88 a3       	std	Y+32, r24	; 0x20
     5d8:	82 e0       	ldi	r24, 0x02	; 2
     5da:	91 e0       	ldi	r25, 0x01	; 1
     5dc:	22 e0       	ldi	r18, 0x02	; 2
     5de:	31 e0       	ldi	r19, 0x01	; 1
     5e0:	f9 01       	movw	r30, r18
     5e2:	20 81       	ld	r18, Z
     5e4:	2f 7d       	andi	r18, 0xDF	; 223
     5e6:	fc 01       	movw	r30, r24
     5e8:	20 83       	st	Z, r18
     5ea:	00 00       	nop
     5ec:	a0 96       	adiw	r28, 0x20	; 32
     5ee:	0f b6       	in	r0, 0x3f	; 63
     5f0:	f8 94       	cli
     5f2:	de bf       	out	0x3e, r29	; 62
     5f4:	0f be       	out	0x3f, r0	; 63
     5f6:	cd bf       	out	0x3d, r28	; 61
     5f8:	df 91       	pop	r29
     5fa:	cf 91       	pop	r28
     5fc:	08 95       	ret

000005fe <lcd_write>:
     5fe:	cf 93       	push	r28
     600:	df 93       	push	r29
     602:	00 d0       	rcall	.+0      	; 0x604 <lcd_write+0x6>
     604:	cd b7       	in	r28, 0x3d	; 61
     606:	de b7       	in	r29, 0x3e	; 62
     608:	8a 83       	std	Y+2, r24	; 0x02
     60a:	6b 83       	std	Y+3, r22	; 0x03
     60c:	8b 81       	ldd	r24, Y+3	; 0x03
     60e:	88 23       	and	r24, r24
     610:	51 f0       	breq	.+20     	; 0x626 <lcd_write+0x28>
     612:	82 e0       	ldi	r24, 0x02	; 2
     614:	91 e0       	ldi	r25, 0x01	; 1
     616:	22 e0       	ldi	r18, 0x02	; 2
     618:	31 e0       	ldi	r19, 0x01	; 1
     61a:	f9 01       	movw	r30, r18
     61c:	20 81       	ld	r18, Z
     61e:	28 60       	ori	r18, 0x08	; 8
     620:	fc 01       	movw	r30, r24
     622:	20 83       	st	Z, r18
     624:	09 c0       	rjmp	.+18     	; 0x638 <lcd_write+0x3a>
     626:	82 e0       	ldi	r24, 0x02	; 2
     628:	91 e0       	ldi	r25, 0x01	; 1
     62a:	22 e0       	ldi	r18, 0x02	; 2
     62c:	31 e0       	ldi	r19, 0x01	; 1
     62e:	f9 01       	movw	r30, r18
     630:	20 81       	ld	r18, Z
     632:	27 7f       	andi	r18, 0xF7	; 247
     634:	fc 01       	movw	r30, r24
     636:	20 83       	st	Z, r18
     638:	82 e0       	ldi	r24, 0x02	; 2
     63a:	91 e0       	ldi	r25, 0x01	; 1
     63c:	22 e0       	ldi	r18, 0x02	; 2
     63e:	31 e0       	ldi	r19, 0x01	; 1
     640:	f9 01       	movw	r30, r18
     642:	20 81       	ld	r18, Z
     644:	2f 7e       	andi	r18, 0xEF	; 239
     646:	fc 01       	movw	r30, r24
     648:	20 83       	st	Z, r18
     64a:	81 e2       	ldi	r24, 0x21	; 33
     64c:	90 e0       	ldi	r25, 0x00	; 0
     64e:	21 e2       	ldi	r18, 0x21	; 33
     650:	30 e0       	ldi	r19, 0x00	; 0
     652:	f9 01       	movw	r30, r18
     654:	20 81       	ld	r18, Z
     656:	2f 60       	ori	r18, 0x0F	; 15
     658:	fc 01       	movw	r30, r24
     65a:	20 83       	st	Z, r18
     65c:	82 e2       	ldi	r24, 0x22	; 34
     65e:	90 e0       	ldi	r25, 0x00	; 0
     660:	fc 01       	movw	r30, r24
     662:	80 81       	ld	r24, Z
     664:	80 7f       	andi	r24, 0xF0	; 240
     666:	89 83       	std	Y+1, r24	; 0x01
     668:	82 e2       	ldi	r24, 0x22	; 34
     66a:	90 e0       	ldi	r25, 0x00	; 0
     66c:	2a 81       	ldd	r18, Y+2	; 0x02
     66e:	22 95       	swap	r18
     670:	2f 70       	andi	r18, 0x0F	; 15
     672:	32 2f       	mov	r19, r18
     674:	29 81       	ldd	r18, Y+1	; 0x01
     676:	23 2b       	or	r18, r19
     678:	fc 01       	movw	r30, r24
     67a:	20 83       	st	Z, r18
     67c:	ab de       	rcall	.-682    	; 0x3d4 <toggle_e>
     67e:	82 e2       	ldi	r24, 0x22	; 34
     680:	90 e0       	ldi	r25, 0x00	; 0
     682:	2a 81       	ldd	r18, Y+2	; 0x02
     684:	32 2f       	mov	r19, r18
     686:	3f 70       	andi	r19, 0x0F	; 15
     688:	29 81       	ldd	r18, Y+1	; 0x01
     68a:	23 2b       	or	r18, r19
     68c:	fc 01       	movw	r30, r24
     68e:	20 83       	st	Z, r18
     690:	a1 de       	rcall	.-702    	; 0x3d4 <toggle_e>
     692:	82 e2       	ldi	r24, 0x22	; 34
     694:	90 e0       	ldi	r25, 0x00	; 0
     696:	29 81       	ldd	r18, Y+1	; 0x01
     698:	2f 60       	ori	r18, 0x0F	; 15
     69a:	fc 01       	movw	r30, r24
     69c:	20 83       	st	Z, r18
     69e:	00 00       	nop
     6a0:	0f 90       	pop	r0
     6a2:	0f 90       	pop	r0
     6a4:	0f 90       	pop	r0
     6a6:	df 91       	pop	r29
     6a8:	cf 91       	pop	r28
     6aa:	08 95       	ret

000006ac <lcd_read>:
     6ac:	0f 93       	push	r16
     6ae:	1f 93       	push	r17
     6b0:	cf 93       	push	r28
     6b2:	df 93       	push	r29
     6b4:	cd b7       	in	r28, 0x3d	; 61
     6b6:	de b7       	in	r29, 0x3e	; 62
     6b8:	c2 56       	subi	r28, 0x62	; 98
     6ba:	d1 09       	sbc	r29, r1
     6bc:	0f b6       	in	r0, 0x3f	; 63
     6be:	f8 94       	cli
     6c0:	de bf       	out	0x3e, r29	; 62
     6c2:	0f be       	out	0x3f, r0	; 63
     6c4:	cd bf       	out	0x3d, r28	; 61
     6c6:	9e 01       	movw	r18, r28
     6c8:	2e 59       	subi	r18, 0x9E	; 158
     6ca:	3f 4f       	sbci	r19, 0xFF	; 255
     6cc:	f9 01       	movw	r30, r18
     6ce:	80 83       	st	Z, r24
     6d0:	ce 01       	movw	r24, r28
     6d2:	8e 59       	subi	r24, 0x9E	; 158
     6d4:	9f 4f       	sbci	r25, 0xFF	; 255
     6d6:	fc 01       	movw	r30, r24
     6d8:	80 81       	ld	r24, Z
     6da:	88 23       	and	r24, r24
     6dc:	51 f0       	breq	.+20     	; 0x6f2 <lcd_read+0x46>
     6de:	82 e0       	ldi	r24, 0x02	; 2
     6e0:	91 e0       	ldi	r25, 0x01	; 1
     6e2:	22 e0       	ldi	r18, 0x02	; 2
     6e4:	31 e0       	ldi	r19, 0x01	; 1
     6e6:	f9 01       	movw	r30, r18
     6e8:	20 81       	ld	r18, Z
     6ea:	28 60       	ori	r18, 0x08	; 8
     6ec:	fc 01       	movw	r30, r24
     6ee:	20 83       	st	Z, r18
     6f0:	09 c0       	rjmp	.+18     	; 0x704 <lcd_read+0x58>
     6f2:	82 e0       	ldi	r24, 0x02	; 2
     6f4:	91 e0       	ldi	r25, 0x01	; 1
     6f6:	22 e0       	ldi	r18, 0x02	; 2
     6f8:	31 e0       	ldi	r19, 0x01	; 1
     6fa:	f9 01       	movw	r30, r18
     6fc:	20 81       	ld	r18, Z
     6fe:	27 7f       	andi	r18, 0xF7	; 247
     700:	fc 01       	movw	r30, r24
     702:	20 83       	st	Z, r18
     704:	82 e0       	ldi	r24, 0x02	; 2
     706:	91 e0       	ldi	r25, 0x01	; 1
     708:	22 e0       	ldi	r18, 0x02	; 2
     70a:	31 e0       	ldi	r19, 0x01	; 1
     70c:	f9 01       	movw	r30, r18
     70e:	20 81       	ld	r18, Z
     710:	20 61       	ori	r18, 0x10	; 16
     712:	fc 01       	movw	r30, r24
     714:	20 83       	st	Z, r18
     716:	81 e2       	ldi	r24, 0x21	; 33
     718:	90 e0       	ldi	r25, 0x00	; 0
     71a:	21 e2       	ldi	r18, 0x21	; 33
     71c:	30 e0       	ldi	r19, 0x00	; 0
     71e:	f9 01       	movw	r30, r18
     720:	20 81       	ld	r18, Z
     722:	20 7f       	andi	r18, 0xF0	; 240
     724:	fc 01       	movw	r30, r24
     726:	20 83       	st	Z, r18
     728:	82 e0       	ldi	r24, 0x02	; 2
     72a:	91 e0       	ldi	r25, 0x01	; 1
     72c:	22 e0       	ldi	r18, 0x02	; 2
     72e:	31 e0       	ldi	r19, 0x01	; 1
     730:	f9 01       	movw	r30, r18
     732:	20 81       	ld	r18, Z
     734:	20 62       	ori	r18, 0x20	; 32
     736:	fc 01       	movw	r30, r24
     738:	20 83       	st	Z, r18
     73a:	80 e0       	ldi	r24, 0x00	; 0
     73c:	90 e0       	ldi	r25, 0x00	; 0
     73e:	a0 e8       	ldi	r26, 0x80	; 128
     740:	bf e3       	ldi	r27, 0x3F	; 63
     742:	8a 83       	std	Y+2, r24	; 0x02
     744:	9b 83       	std	Y+3, r25	; 0x03
     746:	ac 83       	std	Y+4, r26	; 0x04
     748:	bd 83       	std	Y+5, r27	; 0x05
     74a:	8e 01       	movw	r16, r28
     74c:	0a 5b       	subi	r16, 0xBA	; 186
     74e:	1f 4f       	sbci	r17, 0xFF	; 255
     750:	2b ea       	ldi	r18, 0xAB	; 171
     752:	3a ea       	ldi	r19, 0xAA	; 170
     754:	4a ea       	ldi	r20, 0xAA	; 170
     756:	5e e3       	ldi	r21, 0x3E	; 62
     758:	6a 81       	ldd	r22, Y+2	; 0x02
     75a:	7b 81       	ldd	r23, Y+3	; 0x03
     75c:	8c 81       	ldd	r24, Y+4	; 0x04
     75e:	9d 81       	ldd	r25, Y+5	; 0x05
     760:	0e 94 e4 14 	call	0x29c8	; 0x29c8 <__mulsf3>
     764:	dc 01       	movw	r26, r24
     766:	cb 01       	movw	r24, r22
     768:	f8 01       	movw	r30, r16
     76a:	80 83       	st	Z, r24
     76c:	91 83       	std	Z+1, r25	; 0x01
     76e:	a2 83       	std	Z+2, r26	; 0x02
     770:	b3 83       	std	Z+3, r27	; 0x03
     772:	8e 01       	movw	r16, r28
     774:	06 5b       	subi	r16, 0xB6	; 182
     776:	1f 4f       	sbci	r17, 0xFF	; 255
     778:	20 e0       	ldi	r18, 0x00	; 0
     77a:	30 e0       	ldi	r19, 0x00	; 0
     77c:	40 e8       	ldi	r20, 0x80	; 128
     77e:	5e e3       	ldi	r21, 0x3E	; 62
     780:	6a 81       	ldd	r22, Y+2	; 0x02
     782:	7b 81       	ldd	r23, Y+3	; 0x03
     784:	8c 81       	ldd	r24, Y+4	; 0x04
     786:	9d 81       	ldd	r25, Y+5	; 0x05
     788:	0e 94 e4 14 	call	0x29c8	; 0x29c8 <__mulsf3>
     78c:	dc 01       	movw	r26, r24
     78e:	cb 01       	movw	r24, r22
     790:	f8 01       	movw	r30, r16
     792:	80 83       	st	Z, r24
     794:	91 83       	std	Z+1, r25	; 0x01
     796:	a2 83       	std	Z+2, r26	; 0x02
     798:	b3 83       	std	Z+3, r27	; 0x03
     79a:	ce 01       	movw	r24, r28
     79c:	8a 5b       	subi	r24, 0xBA	; 186
     79e:	9f 4f       	sbci	r25, 0xFF	; 255
     7a0:	20 e0       	ldi	r18, 0x00	; 0
     7a2:	30 e0       	ldi	r19, 0x00	; 0
     7a4:	40 e8       	ldi	r20, 0x80	; 128
     7a6:	5f e3       	ldi	r21, 0x3F	; 63
     7a8:	fc 01       	movw	r30, r24
     7aa:	60 81       	ld	r22, Z
     7ac:	71 81       	ldd	r23, Z+1	; 0x01
     7ae:	82 81       	ldd	r24, Z+2	; 0x02
     7b0:	93 81       	ldd	r25, Z+3	; 0x03
     7b2:	0e 94 d3 13 	call	0x27a6	; 0x27a6 <__cmpsf2>
     7b6:	88 23       	and	r24, r24
     7b8:	3c f4       	brge	.+14     	; 0x7c8 <lcd_read+0x11c>
     7ba:	ce 01       	movw	r24, r28
     7bc:	82 5b       	subi	r24, 0xB2	; 178
     7be:	9f 4f       	sbci	r25, 0xFF	; 255
     7c0:	21 e0       	ldi	r18, 0x01	; 1
     7c2:	fc 01       	movw	r30, r24
     7c4:	20 83       	st	Z, r18
     7c6:	2c c1       	rjmp	.+600    	; 0xa20 <lcd_read+0x374>
     7c8:	ce 01       	movw	r24, r28
     7ca:	86 5b       	subi	r24, 0xB6	; 182
     7cc:	9f 4f       	sbci	r25, 0xFF	; 255
     7ce:	20 e0       	ldi	r18, 0x00	; 0
     7d0:	3f ef       	ldi	r19, 0xFF	; 255
     7d2:	4f e7       	ldi	r20, 0x7F	; 127
     7d4:	57 e4       	ldi	r21, 0x47	; 71
     7d6:	fc 01       	movw	r30, r24
     7d8:	60 81       	ld	r22, Z
     7da:	71 81       	ldd	r23, Z+1	; 0x01
     7dc:	82 81       	ldd	r24, Z+2	; 0x02
     7de:	93 81       	ldd	r25, Z+3	; 0x03
     7e0:	0e 94 e0 14 	call	0x29c0	; 0x29c0 <__gesf2>
     7e4:	18 16       	cp	r1, r24
     7e6:	0c f0       	brlt	.+2      	; 0x7ea <lcd_read+0x13e>
     7e8:	cd c0       	rjmp	.+410    	; 0x984 <lcd_read+0x2d8>
     7ea:	20 e0       	ldi	r18, 0x00	; 0
     7ec:	30 e0       	ldi	r19, 0x00	; 0
     7ee:	4a e7       	ldi	r20, 0x7A	; 122
     7f0:	54 e4       	ldi	r21, 0x44	; 68
     7f2:	6a 81       	ldd	r22, Y+2	; 0x02
     7f4:	7b 81       	ldd	r23, Y+3	; 0x03
     7f6:	8c 81       	ldd	r24, Y+4	; 0x04
     7f8:	9d 81       	ldd	r25, Y+5	; 0x05
     7fa:	0e 94 d7 13 	call	0x27ae	; 0x27ae <__divsf3>
     7fe:	dc 01       	movw	r26, r24
     800:	cb 01       	movw	r24, r22
     802:	9e 01       	movw	r18, r28
     804:	21 5b       	subi	r18, 0xB1	; 177
     806:	3f 4f       	sbci	r19, 0xFF	; 255
     808:	f9 01       	movw	r30, r18
     80a:	80 83       	st	Z, r24
     80c:	91 83       	std	Z+1, r25	; 0x01
     80e:	a2 83       	std	Z+2, r26	; 0x02
     810:	b3 83       	std	Z+3, r27	; 0x03
     812:	8e 01       	movw	r16, r28
     814:	0d 5a       	subi	r16, 0xAD	; 173
     816:	1f 4f       	sbci	r17, 0xFF	; 255
     818:	ce 01       	movw	r24, r28
     81a:	81 5b       	subi	r24, 0xB1	; 177
     81c:	9f 4f       	sbci	r25, 0xFF	; 255
     81e:	20 e0       	ldi	r18, 0x00	; 0
     820:	30 e0       	ldi	r19, 0x00	; 0
     822:	4a e7       	ldi	r20, 0x7A	; 122
     824:	53 e4       	ldi	r21, 0x43	; 67
     826:	fc 01       	movw	r30, r24
     828:	60 81       	ld	r22, Z
     82a:	71 81       	ldd	r23, Z+1	; 0x01
     82c:	82 81       	ldd	r24, Z+2	; 0x02
     82e:	93 81       	ldd	r25, Z+3	; 0x03
     830:	0e 94 e4 14 	call	0x29c8	; 0x29c8 <__mulsf3>
     834:	dc 01       	movw	r26, r24
     836:	cb 01       	movw	r24, r22
     838:	f8 01       	movw	r30, r16
     83a:	80 83       	st	Z, r24
     83c:	91 83       	std	Z+1, r25	; 0x01
     83e:	a2 83       	std	Z+2, r26	; 0x02
     840:	b3 83       	std	Z+3, r27	; 0x03
     842:	ce 01       	movw	r24, r28
     844:	8d 5a       	subi	r24, 0xAD	; 173
     846:	9f 4f       	sbci	r25, 0xFF	; 255
     848:	20 e0       	ldi	r18, 0x00	; 0
     84a:	30 e0       	ldi	r19, 0x00	; 0
     84c:	40 e8       	ldi	r20, 0x80	; 128
     84e:	5f e3       	ldi	r21, 0x3F	; 63
     850:	fc 01       	movw	r30, r24
     852:	60 81       	ld	r22, Z
     854:	71 81       	ldd	r23, Z+1	; 0x01
     856:	82 81       	ldd	r24, Z+2	; 0x02
     858:	93 81       	ldd	r25, Z+3	; 0x03
     85a:	0e 94 d3 13 	call	0x27a6	; 0x27a6 <__cmpsf2>
     85e:	88 23       	and	r24, r24
     860:	4c f4       	brge	.+18     	; 0x874 <lcd_read+0x1c8>
     862:	ce 01       	movw	r24, r28
     864:	89 5a       	subi	r24, 0xA9	; 169
     866:	9f 4f       	sbci	r25, 0xFF	; 255
     868:	21 e0       	ldi	r18, 0x01	; 1
     86a:	30 e0       	ldi	r19, 0x00	; 0
     86c:	fc 01       	movw	r30, r24
     86e:	31 83       	std	Z+1, r19	; 0x01
     870:	20 83       	st	Z, r18
     872:	6d c0       	rjmp	.+218    	; 0x94e <lcd_read+0x2a2>
     874:	ce 01       	movw	r24, r28
     876:	8d 5a       	subi	r24, 0xAD	; 173
     878:	9f 4f       	sbci	r25, 0xFF	; 255
     87a:	20 e0       	ldi	r18, 0x00	; 0
     87c:	3f ef       	ldi	r19, 0xFF	; 255
     87e:	4f e7       	ldi	r20, 0x7F	; 127
     880:	57 e4       	ldi	r21, 0x47	; 71
     882:	fc 01       	movw	r30, r24
     884:	60 81       	ld	r22, Z
     886:	71 81       	ldd	r23, Z+1	; 0x01
     888:	82 81       	ldd	r24, Z+2	; 0x02
     88a:	93 81       	ldd	r25, Z+3	; 0x03
     88c:	0e 94 e0 14 	call	0x29c0	; 0x29c0 <__gesf2>
     890:	18 16       	cp	r1, r24
     892:	0c f0       	brlt	.+2      	; 0x896 <lcd_read+0x1ea>
     894:	4a c0       	rjmp	.+148    	; 0x92a <lcd_read+0x27e>
     896:	ce 01       	movw	r24, r28
     898:	81 5b       	subi	r24, 0xB1	; 177
     89a:	9f 4f       	sbci	r25, 0xFF	; 255
     89c:	20 e0       	ldi	r18, 0x00	; 0
     89e:	30 e0       	ldi	r19, 0x00	; 0
     8a0:	40 e2       	ldi	r20, 0x20	; 32
     8a2:	51 e4       	ldi	r21, 0x41	; 65
     8a4:	fc 01       	movw	r30, r24
     8a6:	60 81       	ld	r22, Z
     8a8:	71 81       	ldd	r23, Z+1	; 0x01
     8aa:	82 81       	ldd	r24, Z+2	; 0x02
     8ac:	93 81       	ldd	r25, Z+3	; 0x03
     8ae:	0e 94 e4 14 	call	0x29c8	; 0x29c8 <__mulsf3>
     8b2:	dc 01       	movw	r26, r24
     8b4:	cb 01       	movw	r24, r22
     8b6:	8e 01       	movw	r16, r28
     8b8:	09 5a       	subi	r16, 0xA9	; 169
     8ba:	1f 4f       	sbci	r17, 0xFF	; 255
     8bc:	bc 01       	movw	r22, r24
     8be:	cd 01       	movw	r24, r26
     8c0:	0e 94 3f 14 	call	0x287e	; 0x287e <__fixunssfsi>
     8c4:	dc 01       	movw	r26, r24
     8c6:	cb 01       	movw	r24, r22
     8c8:	f8 01       	movw	r30, r16
     8ca:	91 83       	std	Z+1, r25	; 0x01
     8cc:	80 83       	st	Z, r24
     8ce:	24 c0       	rjmp	.+72     	; 0x918 <lcd_read+0x26c>
     8d0:	ce 01       	movw	r24, r28
     8d2:	87 5a       	subi	r24, 0xA7	; 167
     8d4:	9f 4f       	sbci	r25, 0xFF	; 255
     8d6:	29 e1       	ldi	r18, 0x19	; 25
     8d8:	30 e0       	ldi	r19, 0x00	; 0
     8da:	fc 01       	movw	r30, r24
     8dc:	31 83       	std	Z+1, r19	; 0x01
     8de:	20 83       	st	Z, r18
     8e0:	ce 01       	movw	r24, r28
     8e2:	87 5a       	subi	r24, 0xA7	; 167
     8e4:	9f 4f       	sbci	r25, 0xFF	; 255
     8e6:	fc 01       	movw	r30, r24
     8e8:	80 81       	ld	r24, Z
     8ea:	91 81       	ldd	r25, Z+1	; 0x01
     8ec:	01 97       	sbiw	r24, 0x01	; 1
     8ee:	f1 f7       	brne	.-4      	; 0x8ec <lcd_read+0x240>
     8f0:	9e 01       	movw	r18, r28
     8f2:	27 5a       	subi	r18, 0xA7	; 167
     8f4:	3f 4f       	sbci	r19, 0xFF	; 255
     8f6:	f9 01       	movw	r30, r18
     8f8:	91 83       	std	Z+1, r25	; 0x01
     8fa:	80 83       	st	Z, r24
     8fc:	ce 01       	movw	r24, r28
     8fe:	89 5a       	subi	r24, 0xA9	; 169
     900:	9f 4f       	sbci	r25, 0xFF	; 255
     902:	9e 01       	movw	r18, r28
     904:	29 5a       	subi	r18, 0xA9	; 169
     906:	3f 4f       	sbci	r19, 0xFF	; 255
     908:	f9 01       	movw	r30, r18
     90a:	20 81       	ld	r18, Z
     90c:	31 81       	ldd	r19, Z+1	; 0x01
     90e:	21 50       	subi	r18, 0x01	; 1
     910:	31 09       	sbc	r19, r1
     912:	fc 01       	movw	r30, r24
     914:	31 83       	std	Z+1, r19	; 0x01
     916:	20 83       	st	Z, r18
     918:	ce 01       	movw	r24, r28
     91a:	89 5a       	subi	r24, 0xA9	; 169
     91c:	9f 4f       	sbci	r25, 0xFF	; 255
     91e:	fc 01       	movw	r30, r24
     920:	80 81       	ld	r24, Z
     922:	91 81       	ldd	r25, Z+1	; 0x01
     924:	89 2b       	or	r24, r25
     926:	a1 f6       	brne	.-88     	; 0x8d0 <lcd_read+0x224>
     928:	7b c0       	rjmp	.+246    	; 0xa20 <lcd_read+0x374>
     92a:	8e 01       	movw	r16, r28
     92c:	09 5a       	subi	r16, 0xA9	; 169
     92e:	1f 4f       	sbci	r17, 0xFF	; 255
     930:	ce 01       	movw	r24, r28
     932:	8d 5a       	subi	r24, 0xAD	; 173
     934:	9f 4f       	sbci	r25, 0xFF	; 255
     936:	fc 01       	movw	r30, r24
     938:	60 81       	ld	r22, Z
     93a:	71 81       	ldd	r23, Z+1	; 0x01
     93c:	82 81       	ldd	r24, Z+2	; 0x02
     93e:	93 81       	ldd	r25, Z+3	; 0x03
     940:	0e 94 3f 14 	call	0x287e	; 0x287e <__fixunssfsi>
     944:	dc 01       	movw	r26, r24
     946:	cb 01       	movw	r24, r22
     948:	f8 01       	movw	r30, r16
     94a:	91 83       	std	Z+1, r25	; 0x01
     94c:	80 83       	st	Z, r24
     94e:	ce 01       	movw	r24, r28
     950:	85 5a       	subi	r24, 0xA5	; 165
     952:	9f 4f       	sbci	r25, 0xFF	; 255
     954:	9e 01       	movw	r18, r28
     956:	29 5a       	subi	r18, 0xA9	; 169
     958:	3f 4f       	sbci	r19, 0xFF	; 255
     95a:	f9 01       	movw	r30, r18
     95c:	20 81       	ld	r18, Z
     95e:	31 81       	ldd	r19, Z+1	; 0x01
     960:	fc 01       	movw	r30, r24
     962:	31 83       	std	Z+1, r19	; 0x01
     964:	20 83       	st	Z, r18
     966:	ce 01       	movw	r24, r28
     968:	85 5a       	subi	r24, 0xA5	; 165
     96a:	9f 4f       	sbci	r25, 0xFF	; 255
     96c:	fc 01       	movw	r30, r24
     96e:	80 81       	ld	r24, Z
     970:	91 81       	ldd	r25, Z+1	; 0x01
     972:	01 97       	sbiw	r24, 0x01	; 1
     974:	f1 f7       	brne	.-4      	; 0x972 <lcd_read+0x2c6>
     976:	9e 01       	movw	r18, r28
     978:	25 5a       	subi	r18, 0xA5	; 165
     97a:	3f 4f       	sbci	r19, 0xFF	; 255
     97c:	f9 01       	movw	r30, r18
     97e:	91 83       	std	Z+1, r25	; 0x01
     980:	80 83       	st	Z, r24
     982:	4e c0       	rjmp	.+156    	; 0xa20 <lcd_read+0x374>
     984:	ce 01       	movw	r24, r28
     986:	8a 5b       	subi	r24, 0xBA	; 186
     988:	9f 4f       	sbci	r25, 0xFF	; 255
     98a:	20 e0       	ldi	r18, 0x00	; 0
     98c:	30 e0       	ldi	r19, 0x00	; 0
     98e:	4f e7       	ldi	r20, 0x7F	; 127
     990:	53 e4       	ldi	r21, 0x43	; 67
     992:	fc 01       	movw	r30, r24
     994:	60 81       	ld	r22, Z
     996:	71 81       	ldd	r23, Z+1	; 0x01
     998:	82 81       	ldd	r24, Z+2	; 0x02
     99a:	93 81       	ldd	r25, Z+3	; 0x03
     99c:	0e 94 e0 14 	call	0x29c0	; 0x29c0 <__gesf2>
     9a0:	18 16       	cp	r1, r24
     9a2:	6c f5       	brge	.+90     	; 0x9fe <lcd_read+0x352>
     9a4:	8e 01       	movw	r16, r28
     9a6:	03 5a       	subi	r16, 0xA3	; 163
     9a8:	1f 4f       	sbci	r17, 0xFF	; 255
     9aa:	ce 01       	movw	r24, r28
     9ac:	86 5b       	subi	r24, 0xB6	; 182
     9ae:	9f 4f       	sbci	r25, 0xFF	; 255
     9b0:	fc 01       	movw	r30, r24
     9b2:	60 81       	ld	r22, Z
     9b4:	71 81       	ldd	r23, Z+1	; 0x01
     9b6:	82 81       	ldd	r24, Z+2	; 0x02
     9b8:	93 81       	ldd	r25, Z+3	; 0x03
     9ba:	0e 94 3f 14 	call	0x287e	; 0x287e <__fixunssfsi>
     9be:	dc 01       	movw	r26, r24
     9c0:	cb 01       	movw	r24, r22
     9c2:	f8 01       	movw	r30, r16
     9c4:	91 83       	std	Z+1, r25	; 0x01
     9c6:	80 83       	st	Z, r24
     9c8:	ce 01       	movw	r24, r28
     9ca:	81 5a       	subi	r24, 0xA1	; 161
     9cc:	9f 4f       	sbci	r25, 0xFF	; 255
     9ce:	9e 01       	movw	r18, r28
     9d0:	23 5a       	subi	r18, 0xA3	; 163
     9d2:	3f 4f       	sbci	r19, 0xFF	; 255
     9d4:	f9 01       	movw	r30, r18
     9d6:	20 81       	ld	r18, Z
     9d8:	31 81       	ldd	r19, Z+1	; 0x01
     9da:	fc 01       	movw	r30, r24
     9dc:	31 83       	std	Z+1, r19	; 0x01
     9de:	20 83       	st	Z, r18
     9e0:	ce 01       	movw	r24, r28
     9e2:	81 5a       	subi	r24, 0xA1	; 161
     9e4:	9f 4f       	sbci	r25, 0xFF	; 255
     9e6:	fc 01       	movw	r30, r24
     9e8:	80 81       	ld	r24, Z
     9ea:	91 81       	ldd	r25, Z+1	; 0x01
     9ec:	01 97       	sbiw	r24, 0x01	; 1
     9ee:	f1 f7       	brne	.-4      	; 0x9ec <lcd_read+0x340>
     9f0:	9e 01       	movw	r18, r28
     9f2:	21 5a       	subi	r18, 0xA1	; 161
     9f4:	3f 4f       	sbci	r19, 0xFF	; 255
     9f6:	f9 01       	movw	r30, r18
     9f8:	91 83       	std	Z+1, r25	; 0x01
     9fa:	80 83       	st	Z, r24
     9fc:	28 c0       	rjmp	.+80     	; 0xa4e <lcd_read+0x3a2>
     9fe:	8e 01       	movw	r16, r28
     a00:	02 5b       	subi	r16, 0xB2	; 178
     a02:	1f 4f       	sbci	r17, 0xFF	; 255
     a04:	ce 01       	movw	r24, r28
     a06:	8a 5b       	subi	r24, 0xBA	; 186
     a08:	9f 4f       	sbci	r25, 0xFF	; 255
     a0a:	fc 01       	movw	r30, r24
     a0c:	60 81       	ld	r22, Z
     a0e:	71 81       	ldd	r23, Z+1	; 0x01
     a10:	82 81       	ldd	r24, Z+2	; 0x02
     a12:	93 81       	ldd	r25, Z+3	; 0x03
     a14:	0e 94 3f 14 	call	0x287e	; 0x287e <__fixunssfsi>
     a18:	dc 01       	movw	r26, r24
     a1a:	cb 01       	movw	r24, r22
     a1c:	f8 01       	movw	r30, r16
     a1e:	80 83       	st	Z, r24
     a20:	ce 01       	movw	r24, r28
     a22:	8f 59       	subi	r24, 0x9F	; 159
     a24:	9f 4f       	sbci	r25, 0xFF	; 255
     a26:	9e 01       	movw	r18, r28
     a28:	22 5b       	subi	r18, 0xB2	; 178
     a2a:	3f 4f       	sbci	r19, 0xFF	; 255
     a2c:	f9 01       	movw	r30, r18
     a2e:	20 81       	ld	r18, Z
     a30:	fc 01       	movw	r30, r24
     a32:	20 83       	st	Z, r18
     a34:	ce 01       	movw	r24, r28
     a36:	8f 59       	subi	r24, 0x9F	; 159
     a38:	9f 4f       	sbci	r25, 0xFF	; 255
     a3a:	fc 01       	movw	r30, r24
     a3c:	80 81       	ld	r24, Z
     a3e:	28 2f       	mov	r18, r24
     a40:	2a 95       	dec	r18
     a42:	f1 f7       	brne	.-4      	; 0xa40 <lcd_read+0x394>
     a44:	ce 01       	movw	r24, r28
     a46:	8f 59       	subi	r24, 0x9F	; 159
     a48:	9f 4f       	sbci	r25, 0xFF	; 255
     a4a:	fc 01       	movw	r30, r24
     a4c:	20 83       	st	Z, r18
     a4e:	80 e2       	ldi	r24, 0x20	; 32
     a50:	90 e0       	ldi	r25, 0x00	; 0
     a52:	fc 01       	movw	r30, r24
     a54:	80 81       	ld	r24, Z
     a56:	82 95       	swap	r24
     a58:	80 7f       	andi	r24, 0xF0	; 240
     a5a:	89 83       	std	Y+1, r24	; 0x01
     a5c:	82 e0       	ldi	r24, 0x02	; 2
     a5e:	91 e0       	ldi	r25, 0x01	; 1
     a60:	22 e0       	ldi	r18, 0x02	; 2
     a62:	31 e0       	ldi	r19, 0x01	; 1
     a64:	f9 01       	movw	r30, r18
     a66:	20 81       	ld	r18, Z
     a68:	2f 7d       	andi	r18, 0xDF	; 223
     a6a:	fc 01       	movw	r30, r24
     a6c:	20 83       	st	Z, r18
     a6e:	80 e0       	ldi	r24, 0x00	; 0
     a70:	90 e0       	ldi	r25, 0x00	; 0
     a72:	a0 e8       	ldi	r26, 0x80	; 128
     a74:	bf e3       	ldi	r27, 0x3F	; 63
     a76:	8e 83       	std	Y+6, r24	; 0x06
     a78:	9f 83       	std	Y+7, r25	; 0x07
     a7a:	a8 87       	std	Y+8, r26	; 0x08
     a7c:	b9 87       	std	Y+9, r27	; 0x09
     a7e:	2b ea       	ldi	r18, 0xAB	; 171
     a80:	3a ea       	ldi	r19, 0xAA	; 170
     a82:	4a ea       	ldi	r20, 0xAA	; 170
     a84:	5e e3       	ldi	r21, 0x3E	; 62
     a86:	6e 81       	ldd	r22, Y+6	; 0x06
     a88:	7f 81       	ldd	r23, Y+7	; 0x07
     a8a:	88 85       	ldd	r24, Y+8	; 0x08
     a8c:	99 85       	ldd	r25, Y+9	; 0x09
     a8e:	0e 94 e4 14 	call	0x29c8	; 0x29c8 <__mulsf3>
     a92:	dc 01       	movw	r26, r24
     a94:	cb 01       	movw	r24, r22
     a96:	8a a7       	std	Y+42, r24	; 0x2a
     a98:	9b a7       	std	Y+43, r25	; 0x2b
     a9a:	ac a7       	std	Y+44, r26	; 0x2c
     a9c:	bd a7       	std	Y+45, r27	; 0x2d
     a9e:	20 e0       	ldi	r18, 0x00	; 0
     aa0:	30 e0       	ldi	r19, 0x00	; 0
     aa2:	40 e8       	ldi	r20, 0x80	; 128
     aa4:	5e e3       	ldi	r21, 0x3E	; 62
     aa6:	6e 81       	ldd	r22, Y+6	; 0x06
     aa8:	7f 81       	ldd	r23, Y+7	; 0x07
     aaa:	88 85       	ldd	r24, Y+8	; 0x08
     aac:	99 85       	ldd	r25, Y+9	; 0x09
     aae:	0e 94 e4 14 	call	0x29c8	; 0x29c8 <__mulsf3>
     ab2:	dc 01       	movw	r26, r24
     ab4:	cb 01       	movw	r24, r22
     ab6:	8e a7       	std	Y+46, r24	; 0x2e
     ab8:	9f a7       	std	Y+47, r25	; 0x2f
     aba:	a8 ab       	std	Y+48, r26	; 0x30
     abc:	b9 ab       	std	Y+49, r27	; 0x31
     abe:	20 e0       	ldi	r18, 0x00	; 0
     ac0:	30 e0       	ldi	r19, 0x00	; 0
     ac2:	40 e8       	ldi	r20, 0x80	; 128
     ac4:	5f e3       	ldi	r21, 0x3F	; 63
     ac6:	6a a5       	ldd	r22, Y+42	; 0x2a
     ac8:	7b a5       	ldd	r23, Y+43	; 0x2b
     aca:	8c a5       	ldd	r24, Y+44	; 0x2c
     acc:	9d a5       	ldd	r25, Y+45	; 0x2d
     ace:	0e 94 d3 13 	call	0x27a6	; 0x27a6 <__cmpsf2>
     ad2:	88 23       	and	r24, r24
     ad4:	1c f4       	brge	.+6      	; 0xadc <lcd_read+0x430>
     ad6:	81 e0       	ldi	r24, 0x01	; 1
     ad8:	8a ab       	std	Y+50, r24	; 0x32
     ada:	d0 c0       	rjmp	.+416    	; 0xc7c <lcd_read+0x5d0>
     adc:	20 e0       	ldi	r18, 0x00	; 0
     ade:	3f ef       	ldi	r19, 0xFF	; 255
     ae0:	4f e7       	ldi	r20, 0x7F	; 127
     ae2:	57 e4       	ldi	r21, 0x47	; 71
     ae4:	6e a5       	ldd	r22, Y+46	; 0x2e
     ae6:	7f a5       	ldd	r23, Y+47	; 0x2f
     ae8:	88 a9       	ldd	r24, Y+48	; 0x30
     aea:	99 a9       	ldd	r25, Y+49	; 0x31
     aec:	0e 94 e0 14 	call	0x29c0	; 0x29c0 <__gesf2>
     af0:	18 16       	cp	r1, r24
     af2:	0c f0       	brlt	.+2      	; 0xaf6 <lcd_read+0x44a>
     af4:	85 c0       	rjmp	.+266    	; 0xc00 <lcd_read+0x554>
     af6:	20 e0       	ldi	r18, 0x00	; 0
     af8:	30 e0       	ldi	r19, 0x00	; 0
     afa:	4a e7       	ldi	r20, 0x7A	; 122
     afc:	54 e4       	ldi	r21, 0x44	; 68
     afe:	6e 81       	ldd	r22, Y+6	; 0x06
     b00:	7f 81       	ldd	r23, Y+7	; 0x07
     b02:	88 85       	ldd	r24, Y+8	; 0x08
     b04:	99 85       	ldd	r25, Y+9	; 0x09
     b06:	0e 94 d7 13 	call	0x27ae	; 0x27ae <__divsf3>
     b0a:	dc 01       	movw	r26, r24
     b0c:	cb 01       	movw	r24, r22
     b0e:	8b ab       	std	Y+51, r24	; 0x33
     b10:	9c ab       	std	Y+52, r25	; 0x34
     b12:	ad ab       	std	Y+53, r26	; 0x35
     b14:	be ab       	std	Y+54, r27	; 0x36
     b16:	20 e0       	ldi	r18, 0x00	; 0
     b18:	30 e0       	ldi	r19, 0x00	; 0
     b1a:	4a e7       	ldi	r20, 0x7A	; 122
     b1c:	53 e4       	ldi	r21, 0x43	; 67
     b1e:	6b a9       	ldd	r22, Y+51	; 0x33
     b20:	7c a9       	ldd	r23, Y+52	; 0x34
     b22:	8d a9       	ldd	r24, Y+53	; 0x35
     b24:	9e a9       	ldd	r25, Y+54	; 0x36
     b26:	0e 94 e4 14 	call	0x29c8	; 0x29c8 <__mulsf3>
     b2a:	dc 01       	movw	r26, r24
     b2c:	cb 01       	movw	r24, r22
     b2e:	8f ab       	std	Y+55, r24	; 0x37
     b30:	98 af       	std	Y+56, r25	; 0x38
     b32:	a9 af       	std	Y+57, r26	; 0x39
     b34:	ba af       	std	Y+58, r27	; 0x3a
     b36:	20 e0       	ldi	r18, 0x00	; 0
     b38:	30 e0       	ldi	r19, 0x00	; 0
     b3a:	40 e8       	ldi	r20, 0x80	; 128
     b3c:	5f e3       	ldi	r21, 0x3F	; 63
     b3e:	6f a9       	ldd	r22, Y+55	; 0x37
     b40:	78 ad       	ldd	r23, Y+56	; 0x38
     b42:	89 ad       	ldd	r24, Y+57	; 0x39
     b44:	9a ad       	ldd	r25, Y+58	; 0x3a
     b46:	0e 94 d3 13 	call	0x27a6	; 0x27a6 <__cmpsf2>
     b4a:	88 23       	and	r24, r24
     b4c:	2c f4       	brge	.+10     	; 0xb58 <lcd_read+0x4ac>
     b4e:	81 e0       	ldi	r24, 0x01	; 1
     b50:	90 e0       	ldi	r25, 0x00	; 0
     b52:	9c af       	std	Y+60, r25	; 0x3c
     b54:	8b af       	std	Y+59, r24	; 0x3b
     b56:	3f c0       	rjmp	.+126    	; 0xbd6 <lcd_read+0x52a>
     b58:	20 e0       	ldi	r18, 0x00	; 0
     b5a:	3f ef       	ldi	r19, 0xFF	; 255
     b5c:	4f e7       	ldi	r20, 0x7F	; 127
     b5e:	57 e4       	ldi	r21, 0x47	; 71
     b60:	6f a9       	ldd	r22, Y+55	; 0x37
     b62:	78 ad       	ldd	r23, Y+56	; 0x38
     b64:	89 ad       	ldd	r24, Y+57	; 0x39
     b66:	9a ad       	ldd	r25, Y+58	; 0x3a
     b68:	0e 94 e0 14 	call	0x29c0	; 0x29c0 <__gesf2>
     b6c:	18 16       	cp	r1, r24
     b6e:	4c f5       	brge	.+82     	; 0xbc2 <lcd_read+0x516>
     b70:	20 e0       	ldi	r18, 0x00	; 0
     b72:	30 e0       	ldi	r19, 0x00	; 0
     b74:	40 e2       	ldi	r20, 0x20	; 32
     b76:	51 e4       	ldi	r21, 0x41	; 65
     b78:	6b a9       	ldd	r22, Y+51	; 0x33
     b7a:	7c a9       	ldd	r23, Y+52	; 0x34
     b7c:	8d a9       	ldd	r24, Y+53	; 0x35
     b7e:	9e a9       	ldd	r25, Y+54	; 0x36
     b80:	0e 94 e4 14 	call	0x29c8	; 0x29c8 <__mulsf3>
     b84:	dc 01       	movw	r26, r24
     b86:	cb 01       	movw	r24, r22
     b88:	bc 01       	movw	r22, r24
     b8a:	cd 01       	movw	r24, r26
     b8c:	0e 94 3f 14 	call	0x287e	; 0x287e <__fixunssfsi>
     b90:	dc 01       	movw	r26, r24
     b92:	cb 01       	movw	r24, r22
     b94:	9c af       	std	Y+60, r25	; 0x3c
     b96:	8b af       	std	Y+59, r24	; 0x3b
     b98:	0f c0       	rjmp	.+30     	; 0xbb8 <lcd_read+0x50c>
     b9a:	89 e1       	ldi	r24, 0x19	; 25
     b9c:	90 e0       	ldi	r25, 0x00	; 0
     b9e:	9e af       	std	Y+62, r25	; 0x3e
     ba0:	8d af       	std	Y+61, r24	; 0x3d
     ba2:	8d ad       	ldd	r24, Y+61	; 0x3d
     ba4:	9e ad       	ldd	r25, Y+62	; 0x3e
     ba6:	01 97       	sbiw	r24, 0x01	; 1
     ba8:	f1 f7       	brne	.-4      	; 0xba6 <lcd_read+0x4fa>
     baa:	9e af       	std	Y+62, r25	; 0x3e
     bac:	8d af       	std	Y+61, r24	; 0x3d
     bae:	8b ad       	ldd	r24, Y+59	; 0x3b
     bb0:	9c ad       	ldd	r25, Y+60	; 0x3c
     bb2:	01 97       	sbiw	r24, 0x01	; 1
     bb4:	9c af       	std	Y+60, r25	; 0x3c
     bb6:	8b af       	std	Y+59, r24	; 0x3b
     bb8:	8b ad       	ldd	r24, Y+59	; 0x3b
     bba:	9c ad       	ldd	r25, Y+60	; 0x3c
     bbc:	89 2b       	or	r24, r25
     bbe:	69 f7       	brne	.-38     	; 0xb9a <lcd_read+0x4ee>
     bc0:	5d c0       	rjmp	.+186    	; 0xc7c <lcd_read+0x5d0>
     bc2:	6f a9       	ldd	r22, Y+55	; 0x37
     bc4:	78 ad       	ldd	r23, Y+56	; 0x38
     bc6:	89 ad       	ldd	r24, Y+57	; 0x39
     bc8:	9a ad       	ldd	r25, Y+58	; 0x3a
     bca:	0e 94 3f 14 	call	0x287e	; 0x287e <__fixunssfsi>
     bce:	dc 01       	movw	r26, r24
     bd0:	cb 01       	movw	r24, r22
     bd2:	9c af       	std	Y+60, r25	; 0x3c
     bd4:	8b af       	std	Y+59, r24	; 0x3b
     bd6:	2b ad       	ldd	r18, Y+59	; 0x3b
     bd8:	3c ad       	ldd	r19, Y+60	; 0x3c
     bda:	ce 01       	movw	r24, r28
     bdc:	cf 96       	adiw	r24, 0x3f	; 63
     bde:	fc 01       	movw	r30, r24
     be0:	31 83       	std	Z+1, r19	; 0x01
     be2:	20 83       	st	Z, r18
     be4:	ce 01       	movw	r24, r28
     be6:	cf 96       	adiw	r24, 0x3f	; 63
     be8:	fc 01       	movw	r30, r24
     bea:	80 81       	ld	r24, Z
     bec:	91 81       	ldd	r25, Z+1	; 0x01
     bee:	01 97       	sbiw	r24, 0x01	; 1
     bf0:	f1 f7       	brne	.-4      	; 0xbee <lcd_read+0x542>
     bf2:	9e 01       	movw	r18, r28
     bf4:	21 5c       	subi	r18, 0xC1	; 193
     bf6:	3f 4f       	sbci	r19, 0xFF	; 255
     bf8:	f9 01       	movw	r30, r18
     bfa:	91 83       	std	Z+1, r25	; 0x01
     bfc:	80 83       	st	Z, r24
     bfe:	3e c0       	rjmp	.+124    	; 0xc7c <lcd_read+0x5d0>
     c00:	20 e0       	ldi	r18, 0x00	; 0
     c02:	30 e0       	ldi	r19, 0x00	; 0
     c04:	4f e7       	ldi	r20, 0x7F	; 127
     c06:	53 e4       	ldi	r21, 0x43	; 67
     c08:	6a a5       	ldd	r22, Y+42	; 0x2a
     c0a:	7b a5       	ldd	r23, Y+43	; 0x2b
     c0c:	8c a5       	ldd	r24, Y+44	; 0x2c
     c0e:	9d a5       	ldd	r25, Y+45	; 0x2d
     c10:	0e 94 e0 14 	call	0x29c0	; 0x29c0 <__gesf2>
     c14:	18 16       	cp	r1, r24
     c16:	4c f5       	brge	.+82     	; 0xc6a <lcd_read+0x5be>
     c18:	8e 01       	movw	r16, r28
     c1a:	0f 5b       	subi	r16, 0xBF	; 191
     c1c:	1f 4f       	sbci	r17, 0xFF	; 255
     c1e:	6e a5       	ldd	r22, Y+46	; 0x2e
     c20:	7f a5       	ldd	r23, Y+47	; 0x2f
     c22:	88 a9       	ldd	r24, Y+48	; 0x30
     c24:	99 a9       	ldd	r25, Y+49	; 0x31
     c26:	0e 94 3f 14 	call	0x287e	; 0x287e <__fixunssfsi>
     c2a:	dc 01       	movw	r26, r24
     c2c:	cb 01       	movw	r24, r22
     c2e:	f8 01       	movw	r30, r16
     c30:	91 83       	std	Z+1, r25	; 0x01
     c32:	80 83       	st	Z, r24
     c34:	ce 01       	movw	r24, r28
     c36:	8d 5b       	subi	r24, 0xBD	; 189
     c38:	9f 4f       	sbci	r25, 0xFF	; 255
     c3a:	9e 01       	movw	r18, r28
     c3c:	2f 5b       	subi	r18, 0xBF	; 191
     c3e:	3f 4f       	sbci	r19, 0xFF	; 255
     c40:	f9 01       	movw	r30, r18
     c42:	20 81       	ld	r18, Z
     c44:	31 81       	ldd	r19, Z+1	; 0x01
     c46:	fc 01       	movw	r30, r24
     c48:	31 83       	std	Z+1, r19	; 0x01
     c4a:	20 83       	st	Z, r18
     c4c:	ce 01       	movw	r24, r28
     c4e:	8d 5b       	subi	r24, 0xBD	; 189
     c50:	9f 4f       	sbci	r25, 0xFF	; 255
     c52:	fc 01       	movw	r30, r24
     c54:	80 81       	ld	r24, Z
     c56:	91 81       	ldd	r25, Z+1	; 0x01
     c58:	01 97       	sbiw	r24, 0x01	; 1
     c5a:	f1 f7       	brne	.-4      	; 0xc58 <lcd_read+0x5ac>
     c5c:	9e 01       	movw	r18, r28
     c5e:	2d 5b       	subi	r18, 0xBD	; 189
     c60:	3f 4f       	sbci	r19, 0xFF	; 255
     c62:	f9 01       	movw	r30, r18
     c64:	91 83       	std	Z+1, r25	; 0x01
     c66:	80 83       	st	Z, r24
     c68:	1c c0       	rjmp	.+56     	; 0xca2 <lcd_read+0x5f6>
     c6a:	6a a5       	ldd	r22, Y+42	; 0x2a
     c6c:	7b a5       	ldd	r23, Y+43	; 0x2b
     c6e:	8c a5       	ldd	r24, Y+44	; 0x2c
     c70:	9d a5       	ldd	r25, Y+45	; 0x2d
     c72:	0e 94 3f 14 	call	0x287e	; 0x287e <__fixunssfsi>
     c76:	dc 01       	movw	r26, r24
     c78:	cb 01       	movw	r24, r22
     c7a:	8a ab       	std	Y+50, r24	; 0x32
     c7c:	ce 01       	movw	r24, r28
     c7e:	8b 5b       	subi	r24, 0xBB	; 187
     c80:	9f 4f       	sbci	r25, 0xFF	; 255
     c82:	2a a9       	ldd	r18, Y+50	; 0x32
     c84:	fc 01       	movw	r30, r24
     c86:	20 83       	st	Z, r18
     c88:	ce 01       	movw	r24, r28
     c8a:	8b 5b       	subi	r24, 0xBB	; 187
     c8c:	9f 4f       	sbci	r25, 0xFF	; 255
     c8e:	fc 01       	movw	r30, r24
     c90:	80 81       	ld	r24, Z
     c92:	28 2f       	mov	r18, r24
     c94:	2a 95       	dec	r18
     c96:	f1 f7       	brne	.-4      	; 0xc94 <lcd_read+0x5e8>
     c98:	ce 01       	movw	r24, r28
     c9a:	8b 5b       	subi	r24, 0xBB	; 187
     c9c:	9f 4f       	sbci	r25, 0xFF	; 255
     c9e:	fc 01       	movw	r30, r24
     ca0:	20 83       	st	Z, r18
     ca2:	82 e0       	ldi	r24, 0x02	; 2
     ca4:	91 e0       	ldi	r25, 0x01	; 1
     ca6:	22 e0       	ldi	r18, 0x02	; 2
     ca8:	31 e0       	ldi	r19, 0x01	; 1
     caa:	f9 01       	movw	r30, r18
     cac:	20 81       	ld	r18, Z
     cae:	20 62       	ori	r18, 0x20	; 32
     cb0:	fc 01       	movw	r30, r24
     cb2:	20 83       	st	Z, r18
     cb4:	80 e0       	ldi	r24, 0x00	; 0
     cb6:	90 e0       	ldi	r25, 0x00	; 0
     cb8:	a0 e8       	ldi	r26, 0x80	; 128
     cba:	bf e3       	ldi	r27, 0x3F	; 63
     cbc:	8a 87       	std	Y+10, r24	; 0x0a
     cbe:	9b 87       	std	Y+11, r25	; 0x0b
     cc0:	ac 87       	std	Y+12, r26	; 0x0c
     cc2:	bd 87       	std	Y+13, r27	; 0x0d
     cc4:	2b ea       	ldi	r18, 0xAB	; 171
     cc6:	3a ea       	ldi	r19, 0xAA	; 170
     cc8:	4a ea       	ldi	r20, 0xAA	; 170
     cca:	5e e3       	ldi	r21, 0x3E	; 62
     ccc:	6a 85       	ldd	r22, Y+10	; 0x0a
     cce:	7b 85       	ldd	r23, Y+11	; 0x0b
     cd0:	8c 85       	ldd	r24, Y+12	; 0x0c
     cd2:	9d 85       	ldd	r25, Y+13	; 0x0d
     cd4:	0e 94 e4 14 	call	0x29c8	; 0x29c8 <__mulsf3>
     cd8:	dc 01       	movw	r26, r24
     cda:	cb 01       	movw	r24, r22
     cdc:	8e 87       	std	Y+14, r24	; 0x0e
     cde:	9f 87       	std	Y+15, r25	; 0x0f
     ce0:	a8 8b       	std	Y+16, r26	; 0x10
     ce2:	b9 8b       	std	Y+17, r27	; 0x11
     ce4:	20 e0       	ldi	r18, 0x00	; 0
     ce6:	30 e0       	ldi	r19, 0x00	; 0
     ce8:	40 e8       	ldi	r20, 0x80	; 128
     cea:	5e e3       	ldi	r21, 0x3E	; 62
     cec:	6a 85       	ldd	r22, Y+10	; 0x0a
     cee:	7b 85       	ldd	r23, Y+11	; 0x0b
     cf0:	8c 85       	ldd	r24, Y+12	; 0x0c
     cf2:	9d 85       	ldd	r25, Y+13	; 0x0d
     cf4:	0e 94 e4 14 	call	0x29c8	; 0x29c8 <__mulsf3>
     cf8:	dc 01       	movw	r26, r24
     cfa:	cb 01       	movw	r24, r22
     cfc:	8a 8b       	std	Y+18, r24	; 0x12
     cfe:	9b 8b       	std	Y+19, r25	; 0x13
     d00:	ac 8b       	std	Y+20, r26	; 0x14
     d02:	bd 8b       	std	Y+21, r27	; 0x15
     d04:	20 e0       	ldi	r18, 0x00	; 0
     d06:	30 e0       	ldi	r19, 0x00	; 0
     d08:	40 e8       	ldi	r20, 0x80	; 128
     d0a:	5f e3       	ldi	r21, 0x3F	; 63
     d0c:	6e 85       	ldd	r22, Y+14	; 0x0e
     d0e:	7f 85       	ldd	r23, Y+15	; 0x0f
     d10:	88 89       	ldd	r24, Y+16	; 0x10
     d12:	99 89       	ldd	r25, Y+17	; 0x11
     d14:	0e 94 d3 13 	call	0x27a6	; 0x27a6 <__cmpsf2>
     d18:	88 23       	and	r24, r24
     d1a:	1c f4       	brge	.+6      	; 0xd22 <lcd_read+0x676>
     d1c:	81 e0       	ldi	r24, 0x01	; 1
     d1e:	8e 8b       	std	Y+22, r24	; 0x16
     d20:	b2 c0       	rjmp	.+356    	; 0xe86 <lcd_read+0x7da>
     d22:	20 e0       	ldi	r18, 0x00	; 0
     d24:	3f ef       	ldi	r19, 0xFF	; 255
     d26:	4f e7       	ldi	r20, 0x7F	; 127
     d28:	57 e4       	ldi	r21, 0x47	; 71
     d2a:	6a 89       	ldd	r22, Y+18	; 0x12
     d2c:	7b 89       	ldd	r23, Y+19	; 0x13
     d2e:	8c 89       	ldd	r24, Y+20	; 0x14
     d30:	9d 89       	ldd	r25, Y+21	; 0x15
     d32:	0e 94 e0 14 	call	0x29c0	; 0x29c0 <__gesf2>
     d36:	18 16       	cp	r1, r24
     d38:	0c f0       	brlt	.+2      	; 0xd3c <lcd_read+0x690>
     d3a:	7b c0       	rjmp	.+246    	; 0xe32 <lcd_read+0x786>
     d3c:	20 e0       	ldi	r18, 0x00	; 0
     d3e:	30 e0       	ldi	r19, 0x00	; 0
     d40:	4a e7       	ldi	r20, 0x7A	; 122
     d42:	54 e4       	ldi	r21, 0x44	; 68
     d44:	6a 85       	ldd	r22, Y+10	; 0x0a
     d46:	7b 85       	ldd	r23, Y+11	; 0x0b
     d48:	8c 85       	ldd	r24, Y+12	; 0x0c
     d4a:	9d 85       	ldd	r25, Y+13	; 0x0d
     d4c:	0e 94 d7 13 	call	0x27ae	; 0x27ae <__divsf3>
     d50:	dc 01       	movw	r26, r24
     d52:	cb 01       	movw	r24, r22
     d54:	8f 8b       	std	Y+23, r24	; 0x17
     d56:	98 8f       	std	Y+24, r25	; 0x18
     d58:	a9 8f       	std	Y+25, r26	; 0x19
     d5a:	ba 8f       	std	Y+26, r27	; 0x1a
     d5c:	20 e0       	ldi	r18, 0x00	; 0
     d5e:	30 e0       	ldi	r19, 0x00	; 0
     d60:	4a e7       	ldi	r20, 0x7A	; 122
     d62:	53 e4       	ldi	r21, 0x43	; 67
     d64:	6f 89       	ldd	r22, Y+23	; 0x17
     d66:	78 8d       	ldd	r23, Y+24	; 0x18
     d68:	89 8d       	ldd	r24, Y+25	; 0x19
     d6a:	9a 8d       	ldd	r25, Y+26	; 0x1a
     d6c:	0e 94 e4 14 	call	0x29c8	; 0x29c8 <__mulsf3>
     d70:	dc 01       	movw	r26, r24
     d72:	cb 01       	movw	r24, r22
     d74:	8b 8f       	std	Y+27, r24	; 0x1b
     d76:	9c 8f       	std	Y+28, r25	; 0x1c
     d78:	ad 8f       	std	Y+29, r26	; 0x1d
     d7a:	be 8f       	std	Y+30, r27	; 0x1e
     d7c:	20 e0       	ldi	r18, 0x00	; 0
     d7e:	30 e0       	ldi	r19, 0x00	; 0
     d80:	40 e8       	ldi	r20, 0x80	; 128
     d82:	5f e3       	ldi	r21, 0x3F	; 63
     d84:	6b 8d       	ldd	r22, Y+27	; 0x1b
     d86:	7c 8d       	ldd	r23, Y+28	; 0x1c
     d88:	8d 8d       	ldd	r24, Y+29	; 0x1d
     d8a:	9e 8d       	ldd	r25, Y+30	; 0x1e
     d8c:	0e 94 d3 13 	call	0x27a6	; 0x27a6 <__cmpsf2>
     d90:	88 23       	and	r24, r24
     d92:	2c f4       	brge	.+10     	; 0xd9e <lcd_read+0x6f2>
     d94:	81 e0       	ldi	r24, 0x01	; 1
     d96:	90 e0       	ldi	r25, 0x00	; 0
     d98:	98 a3       	std	Y+32, r25	; 0x20
     d9a:	8f 8f       	std	Y+31, r24	; 0x1f
     d9c:	3f c0       	rjmp	.+126    	; 0xe1c <lcd_read+0x770>
     d9e:	20 e0       	ldi	r18, 0x00	; 0
     da0:	3f ef       	ldi	r19, 0xFF	; 255
     da2:	4f e7       	ldi	r20, 0x7F	; 127
     da4:	57 e4       	ldi	r21, 0x47	; 71
     da6:	6b 8d       	ldd	r22, Y+27	; 0x1b
     da8:	7c 8d       	ldd	r23, Y+28	; 0x1c
     daa:	8d 8d       	ldd	r24, Y+29	; 0x1d
     dac:	9e 8d       	ldd	r25, Y+30	; 0x1e
     dae:	0e 94 e0 14 	call	0x29c0	; 0x29c0 <__gesf2>
     db2:	18 16       	cp	r1, r24
     db4:	4c f5       	brge	.+82     	; 0xe08 <lcd_read+0x75c>
     db6:	20 e0       	ldi	r18, 0x00	; 0
     db8:	30 e0       	ldi	r19, 0x00	; 0
     dba:	40 e2       	ldi	r20, 0x20	; 32
     dbc:	51 e4       	ldi	r21, 0x41	; 65
     dbe:	6f 89       	ldd	r22, Y+23	; 0x17
     dc0:	78 8d       	ldd	r23, Y+24	; 0x18
     dc2:	89 8d       	ldd	r24, Y+25	; 0x19
     dc4:	9a 8d       	ldd	r25, Y+26	; 0x1a
     dc6:	0e 94 e4 14 	call	0x29c8	; 0x29c8 <__mulsf3>
     dca:	dc 01       	movw	r26, r24
     dcc:	cb 01       	movw	r24, r22
     dce:	bc 01       	movw	r22, r24
     dd0:	cd 01       	movw	r24, r26
     dd2:	0e 94 3f 14 	call	0x287e	; 0x287e <__fixunssfsi>
     dd6:	dc 01       	movw	r26, r24
     dd8:	cb 01       	movw	r24, r22
     dda:	98 a3       	std	Y+32, r25	; 0x20
     ddc:	8f 8f       	std	Y+31, r24	; 0x1f
     dde:	0f c0       	rjmp	.+30     	; 0xdfe <lcd_read+0x752>
     de0:	89 e1       	ldi	r24, 0x19	; 25
     de2:	90 e0       	ldi	r25, 0x00	; 0
     de4:	9a a3       	std	Y+34, r25	; 0x22
     de6:	89 a3       	std	Y+33, r24	; 0x21
     de8:	89 a1       	ldd	r24, Y+33	; 0x21
     dea:	9a a1       	ldd	r25, Y+34	; 0x22
     dec:	01 97       	sbiw	r24, 0x01	; 1
     dee:	f1 f7       	brne	.-4      	; 0xdec <lcd_read+0x740>
     df0:	9a a3       	std	Y+34, r25	; 0x22
     df2:	89 a3       	std	Y+33, r24	; 0x21
     df4:	8f 8d       	ldd	r24, Y+31	; 0x1f
     df6:	98 a1       	ldd	r25, Y+32	; 0x20
     df8:	01 97       	sbiw	r24, 0x01	; 1
     dfa:	98 a3       	std	Y+32, r25	; 0x20
     dfc:	8f 8f       	std	Y+31, r24	; 0x1f
     dfe:	8f 8d       	ldd	r24, Y+31	; 0x1f
     e00:	98 a1       	ldd	r25, Y+32	; 0x20
     e02:	89 2b       	or	r24, r25
     e04:	69 f7       	brne	.-38     	; 0xde0 <lcd_read+0x734>
     e06:	3f c0       	rjmp	.+126    	; 0xe86 <lcd_read+0x7da>
     e08:	6b 8d       	ldd	r22, Y+27	; 0x1b
     e0a:	7c 8d       	ldd	r23, Y+28	; 0x1c
     e0c:	8d 8d       	ldd	r24, Y+29	; 0x1d
     e0e:	9e 8d       	ldd	r25, Y+30	; 0x1e
     e10:	0e 94 3f 14 	call	0x287e	; 0x287e <__fixunssfsi>
     e14:	dc 01       	movw	r26, r24
     e16:	cb 01       	movw	r24, r22
     e18:	98 a3       	std	Y+32, r25	; 0x20
     e1a:	8f 8f       	std	Y+31, r24	; 0x1f
     e1c:	8f 8d       	ldd	r24, Y+31	; 0x1f
     e1e:	98 a1       	ldd	r25, Y+32	; 0x20
     e20:	9c a3       	std	Y+36, r25	; 0x24
     e22:	8b a3       	std	Y+35, r24	; 0x23
     e24:	8b a1       	ldd	r24, Y+35	; 0x23
     e26:	9c a1       	ldd	r25, Y+36	; 0x24
     e28:	01 97       	sbiw	r24, 0x01	; 1
     e2a:	f1 f7       	brne	.-4      	; 0xe28 <lcd_read+0x77c>
     e2c:	9c a3       	std	Y+36, r25	; 0x24
     e2e:	8b a3       	std	Y+35, r24	; 0x23
     e30:	2a c0       	rjmp	.+84     	; 0xe86 <lcd_read+0x7da>
     e32:	20 e0       	ldi	r18, 0x00	; 0
     e34:	30 e0       	ldi	r19, 0x00	; 0
     e36:	4f e7       	ldi	r20, 0x7F	; 127
     e38:	53 e4       	ldi	r21, 0x43	; 67
     e3a:	6e 85       	ldd	r22, Y+14	; 0x0e
     e3c:	7f 85       	ldd	r23, Y+15	; 0x0f
     e3e:	88 89       	ldd	r24, Y+16	; 0x10
     e40:	99 89       	ldd	r25, Y+17	; 0x11
     e42:	0e 94 e0 14 	call	0x29c0	; 0x29c0 <__gesf2>
     e46:	18 16       	cp	r1, r24
     e48:	ac f4       	brge	.+42     	; 0xe74 <lcd_read+0x7c8>
     e4a:	6a 89       	ldd	r22, Y+18	; 0x12
     e4c:	7b 89       	ldd	r23, Y+19	; 0x13
     e4e:	8c 89       	ldd	r24, Y+20	; 0x14
     e50:	9d 89       	ldd	r25, Y+21	; 0x15
     e52:	0e 94 3f 14 	call	0x287e	; 0x287e <__fixunssfsi>
     e56:	dc 01       	movw	r26, r24
     e58:	cb 01       	movw	r24, r22
     e5a:	9e a3       	std	Y+38, r25	; 0x26
     e5c:	8d a3       	std	Y+37, r24	; 0x25
     e5e:	8d a1       	ldd	r24, Y+37	; 0x25
     e60:	9e a1       	ldd	r25, Y+38	; 0x26
     e62:	98 a7       	std	Y+40, r25	; 0x28
     e64:	8f a3       	std	Y+39, r24	; 0x27
     e66:	8f a1       	ldd	r24, Y+39	; 0x27
     e68:	98 a5       	ldd	r25, Y+40	; 0x28
     e6a:	01 97       	sbiw	r24, 0x01	; 1
     e6c:	f1 f7       	brne	.-4      	; 0xe6a <lcd_read+0x7be>
     e6e:	98 a7       	std	Y+40, r25	; 0x28
     e70:	8f a3       	std	Y+39, r24	; 0x27
     e72:	0f c0       	rjmp	.+30     	; 0xe92 <lcd_read+0x7e6>
     e74:	6e 85       	ldd	r22, Y+14	; 0x0e
     e76:	7f 85       	ldd	r23, Y+15	; 0x0f
     e78:	88 89       	ldd	r24, Y+16	; 0x10
     e7a:	99 89       	ldd	r25, Y+17	; 0x11
     e7c:	0e 94 3f 14 	call	0x287e	; 0x287e <__fixunssfsi>
     e80:	dc 01       	movw	r26, r24
     e82:	cb 01       	movw	r24, r22
     e84:	8e 8b       	std	Y+22, r24	; 0x16
     e86:	8e 89       	ldd	r24, Y+22	; 0x16
     e88:	89 a7       	std	Y+41, r24	; 0x29
     e8a:	89 a5       	ldd	r24, Y+41	; 0x29
     e8c:	8a 95       	dec	r24
     e8e:	f1 f7       	brne	.-4      	; 0xe8c <lcd_read+0x7e0>
     e90:	89 a7       	std	Y+41, r24	; 0x29
     e92:	80 e2       	ldi	r24, 0x20	; 32
     e94:	90 e0       	ldi	r25, 0x00	; 0
     e96:	fc 01       	movw	r30, r24
     e98:	80 81       	ld	r24, Z
     e9a:	88 2f       	mov	r24, r24
     e9c:	90 e0       	ldi	r25, 0x00	; 0
     e9e:	8f 70       	andi	r24, 0x0F	; 15
     ea0:	99 27       	eor	r25, r25
     ea2:	98 2f       	mov	r25, r24
     ea4:	89 81       	ldd	r24, Y+1	; 0x01
     ea6:	89 2b       	or	r24, r25
     ea8:	89 83       	std	Y+1, r24	; 0x01
     eaa:	82 e0       	ldi	r24, 0x02	; 2
     eac:	91 e0       	ldi	r25, 0x01	; 1
     eae:	22 e0       	ldi	r18, 0x02	; 2
     eb0:	31 e0       	ldi	r19, 0x01	; 1
     eb2:	f9 01       	movw	r30, r18
     eb4:	20 81       	ld	r18, Z
     eb6:	2f 7d       	andi	r18, 0xDF	; 223
     eb8:	fc 01       	movw	r30, r24
     eba:	20 83       	st	Z, r18
     ebc:	89 81       	ldd	r24, Y+1	; 0x01
     ebe:	ce 59       	subi	r28, 0x9E	; 158
     ec0:	df 4f       	sbci	r29, 0xFF	; 255
     ec2:	0f b6       	in	r0, 0x3f	; 63
     ec4:	f8 94       	cli
     ec6:	de bf       	out	0x3e, r29	; 62
     ec8:	0f be       	out	0x3f, r0	; 63
     eca:	cd bf       	out	0x3d, r28	; 61
     ecc:	df 91       	pop	r29
     ece:	cf 91       	pop	r28
     ed0:	1f 91       	pop	r17
     ed2:	0f 91       	pop	r16
     ed4:	08 95       	ret

00000ed6 <lcd_waitbusy>:
     ed6:	1f 93       	push	r17
     ed8:	cf 93       	push	r28
     eda:	df 93       	push	r29
     edc:	cd b7       	in	r28, 0x3d	; 61
     ede:	de b7       	in	r29, 0x3e	; 62
     ee0:	a0 97       	sbiw	r28, 0x20	; 32
     ee2:	0f b6       	in	r0, 0x3f	; 63
     ee4:	f8 94       	cli
     ee6:	de bf       	out	0x3e, r29	; 62
     ee8:	0f be       	out	0x3f, r0	; 63
     eea:	cd bf       	out	0x3d, r28	; 61
     eec:	80 e0       	ldi	r24, 0x00	; 0
     eee:	de db       	rcall	.-2116   	; 0x6ac <lcd_read>
     ef0:	18 2f       	mov	r17, r24
     ef2:	81 2f       	mov	r24, r17
     ef4:	88 23       	and	r24, r24
     ef6:	d4 f3       	brlt	.-12     	; 0xeec <lcd_waitbusy+0x16>
     ef8:	80 e0       	ldi	r24, 0x00	; 0
     efa:	90 e0       	ldi	r25, 0x00	; 0
     efc:	a0 e8       	ldi	r26, 0x80	; 128
     efe:	b0 e4       	ldi	r27, 0x40	; 64
     f00:	89 83       	std	Y+1, r24	; 0x01
     f02:	9a 83       	std	Y+2, r25	; 0x02
     f04:	ab 83       	std	Y+3, r26	; 0x03
     f06:	bc 83       	std	Y+4, r27	; 0x04
     f08:	2b ea       	ldi	r18, 0xAB	; 171
     f0a:	3a ea       	ldi	r19, 0xAA	; 170
     f0c:	4a ea       	ldi	r20, 0xAA	; 170
     f0e:	5e e3       	ldi	r21, 0x3E	; 62
     f10:	69 81       	ldd	r22, Y+1	; 0x01
     f12:	7a 81       	ldd	r23, Y+2	; 0x02
     f14:	8b 81       	ldd	r24, Y+3	; 0x03
     f16:	9c 81       	ldd	r25, Y+4	; 0x04
     f18:	0e 94 e4 14 	call	0x29c8	; 0x29c8 <__mulsf3>
     f1c:	dc 01       	movw	r26, r24
     f1e:	cb 01       	movw	r24, r22
     f20:	8d 83       	std	Y+5, r24	; 0x05
     f22:	9e 83       	std	Y+6, r25	; 0x06
     f24:	af 83       	std	Y+7, r26	; 0x07
     f26:	b8 87       	std	Y+8, r27	; 0x08
     f28:	20 e0       	ldi	r18, 0x00	; 0
     f2a:	30 e0       	ldi	r19, 0x00	; 0
     f2c:	40 e8       	ldi	r20, 0x80	; 128
     f2e:	5e e3       	ldi	r21, 0x3E	; 62
     f30:	69 81       	ldd	r22, Y+1	; 0x01
     f32:	7a 81       	ldd	r23, Y+2	; 0x02
     f34:	8b 81       	ldd	r24, Y+3	; 0x03
     f36:	9c 81       	ldd	r25, Y+4	; 0x04
     f38:	0e 94 e4 14 	call	0x29c8	; 0x29c8 <__mulsf3>
     f3c:	dc 01       	movw	r26, r24
     f3e:	cb 01       	movw	r24, r22
     f40:	89 87       	std	Y+9, r24	; 0x09
     f42:	9a 87       	std	Y+10, r25	; 0x0a
     f44:	ab 87       	std	Y+11, r26	; 0x0b
     f46:	bc 87       	std	Y+12, r27	; 0x0c
     f48:	20 e0       	ldi	r18, 0x00	; 0
     f4a:	30 e0       	ldi	r19, 0x00	; 0
     f4c:	40 e8       	ldi	r20, 0x80	; 128
     f4e:	5f e3       	ldi	r21, 0x3F	; 63
     f50:	6d 81       	ldd	r22, Y+5	; 0x05
     f52:	7e 81       	ldd	r23, Y+6	; 0x06
     f54:	8f 81       	ldd	r24, Y+7	; 0x07
     f56:	98 85       	ldd	r25, Y+8	; 0x08
     f58:	0e 94 d3 13 	call	0x27a6	; 0x27a6 <__cmpsf2>
     f5c:	88 23       	and	r24, r24
     f5e:	1c f4       	brge	.+6      	; 0xf66 <lcd_waitbusy+0x90>
     f60:	81 e0       	ldi	r24, 0x01	; 1
     f62:	8d 87       	std	Y+13, r24	; 0x0d
     f64:	b2 c0       	rjmp	.+356    	; 0x10ca <__EEPROM_REGION_LENGTH__+0xca>
     f66:	20 e0       	ldi	r18, 0x00	; 0
     f68:	3f ef       	ldi	r19, 0xFF	; 255
     f6a:	4f e7       	ldi	r20, 0x7F	; 127
     f6c:	57 e4       	ldi	r21, 0x47	; 71
     f6e:	69 85       	ldd	r22, Y+9	; 0x09
     f70:	7a 85       	ldd	r23, Y+10	; 0x0a
     f72:	8b 85       	ldd	r24, Y+11	; 0x0b
     f74:	9c 85       	ldd	r25, Y+12	; 0x0c
     f76:	0e 94 e0 14 	call	0x29c0	; 0x29c0 <__gesf2>
     f7a:	18 16       	cp	r1, r24
     f7c:	0c f0       	brlt	.+2      	; 0xf80 <lcd_waitbusy+0xaa>
     f7e:	7b c0       	rjmp	.+246    	; 0x1076 <__EEPROM_REGION_LENGTH__+0x76>
     f80:	20 e0       	ldi	r18, 0x00	; 0
     f82:	30 e0       	ldi	r19, 0x00	; 0
     f84:	4a e7       	ldi	r20, 0x7A	; 122
     f86:	54 e4       	ldi	r21, 0x44	; 68
     f88:	69 81       	ldd	r22, Y+1	; 0x01
     f8a:	7a 81       	ldd	r23, Y+2	; 0x02
     f8c:	8b 81       	ldd	r24, Y+3	; 0x03
     f8e:	9c 81       	ldd	r25, Y+4	; 0x04
     f90:	0e 94 d7 13 	call	0x27ae	; 0x27ae <__divsf3>
     f94:	dc 01       	movw	r26, r24
     f96:	cb 01       	movw	r24, r22
     f98:	8e 87       	std	Y+14, r24	; 0x0e
     f9a:	9f 87       	std	Y+15, r25	; 0x0f
     f9c:	a8 8b       	std	Y+16, r26	; 0x10
     f9e:	b9 8b       	std	Y+17, r27	; 0x11
     fa0:	20 e0       	ldi	r18, 0x00	; 0
     fa2:	30 e0       	ldi	r19, 0x00	; 0
     fa4:	4a e7       	ldi	r20, 0x7A	; 122
     fa6:	53 e4       	ldi	r21, 0x43	; 67
     fa8:	6e 85       	ldd	r22, Y+14	; 0x0e
     faa:	7f 85       	ldd	r23, Y+15	; 0x0f
     fac:	88 89       	ldd	r24, Y+16	; 0x10
     fae:	99 89       	ldd	r25, Y+17	; 0x11
     fb0:	0e 94 e4 14 	call	0x29c8	; 0x29c8 <__mulsf3>
     fb4:	dc 01       	movw	r26, r24
     fb6:	cb 01       	movw	r24, r22
     fb8:	8a 8b       	std	Y+18, r24	; 0x12
     fba:	9b 8b       	std	Y+19, r25	; 0x13
     fbc:	ac 8b       	std	Y+20, r26	; 0x14
     fbe:	bd 8b       	std	Y+21, r27	; 0x15
     fc0:	20 e0       	ldi	r18, 0x00	; 0
     fc2:	30 e0       	ldi	r19, 0x00	; 0
     fc4:	40 e8       	ldi	r20, 0x80	; 128
     fc6:	5f e3       	ldi	r21, 0x3F	; 63
     fc8:	6a 89       	ldd	r22, Y+18	; 0x12
     fca:	7b 89       	ldd	r23, Y+19	; 0x13
     fcc:	8c 89       	ldd	r24, Y+20	; 0x14
     fce:	9d 89       	ldd	r25, Y+21	; 0x15
     fd0:	0e 94 d3 13 	call	0x27a6	; 0x27a6 <__cmpsf2>
     fd4:	88 23       	and	r24, r24
     fd6:	2c f4       	brge	.+10     	; 0xfe2 <lcd_waitbusy+0x10c>
     fd8:	81 e0       	ldi	r24, 0x01	; 1
     fda:	90 e0       	ldi	r25, 0x00	; 0
     fdc:	9f 8b       	std	Y+23, r25	; 0x17
     fde:	8e 8b       	std	Y+22, r24	; 0x16
     fe0:	3f c0       	rjmp	.+126    	; 0x1060 <__EEPROM_REGION_LENGTH__+0x60>
     fe2:	20 e0       	ldi	r18, 0x00	; 0
     fe4:	3f ef       	ldi	r19, 0xFF	; 255
     fe6:	4f e7       	ldi	r20, 0x7F	; 127
     fe8:	57 e4       	ldi	r21, 0x47	; 71
     fea:	6a 89       	ldd	r22, Y+18	; 0x12
     fec:	7b 89       	ldd	r23, Y+19	; 0x13
     fee:	8c 89       	ldd	r24, Y+20	; 0x14
     ff0:	9d 89       	ldd	r25, Y+21	; 0x15
     ff2:	0e 94 e0 14 	call	0x29c0	; 0x29c0 <__gesf2>
     ff6:	18 16       	cp	r1, r24
     ff8:	4c f5       	brge	.+82     	; 0x104c <__EEPROM_REGION_LENGTH__+0x4c>
     ffa:	20 e0       	ldi	r18, 0x00	; 0
     ffc:	30 e0       	ldi	r19, 0x00	; 0
     ffe:	40 e2       	ldi	r20, 0x20	; 32
    1000:	51 e4       	ldi	r21, 0x41	; 65
    1002:	6e 85       	ldd	r22, Y+14	; 0x0e
    1004:	7f 85       	ldd	r23, Y+15	; 0x0f
    1006:	88 89       	ldd	r24, Y+16	; 0x10
    1008:	99 89       	ldd	r25, Y+17	; 0x11
    100a:	0e 94 e4 14 	call	0x29c8	; 0x29c8 <__mulsf3>
    100e:	dc 01       	movw	r26, r24
    1010:	cb 01       	movw	r24, r22
    1012:	bc 01       	movw	r22, r24
    1014:	cd 01       	movw	r24, r26
    1016:	0e 94 3f 14 	call	0x287e	; 0x287e <__fixunssfsi>
    101a:	dc 01       	movw	r26, r24
    101c:	cb 01       	movw	r24, r22
    101e:	9f 8b       	std	Y+23, r25	; 0x17
    1020:	8e 8b       	std	Y+22, r24	; 0x16
    1022:	0f c0       	rjmp	.+30     	; 0x1042 <__EEPROM_REGION_LENGTH__+0x42>
    1024:	89 e1       	ldi	r24, 0x19	; 25
    1026:	90 e0       	ldi	r25, 0x00	; 0
    1028:	99 8f       	std	Y+25, r25	; 0x19
    102a:	88 8f       	std	Y+24, r24	; 0x18
    102c:	88 8d       	ldd	r24, Y+24	; 0x18
    102e:	99 8d       	ldd	r25, Y+25	; 0x19
    1030:	01 97       	sbiw	r24, 0x01	; 1
    1032:	f1 f7       	brne	.-4      	; 0x1030 <__EEPROM_REGION_LENGTH__+0x30>
    1034:	99 8f       	std	Y+25, r25	; 0x19
    1036:	88 8f       	std	Y+24, r24	; 0x18
    1038:	8e 89       	ldd	r24, Y+22	; 0x16
    103a:	9f 89       	ldd	r25, Y+23	; 0x17
    103c:	01 97       	sbiw	r24, 0x01	; 1
    103e:	9f 8b       	std	Y+23, r25	; 0x17
    1040:	8e 8b       	std	Y+22, r24	; 0x16
    1042:	8e 89       	ldd	r24, Y+22	; 0x16
    1044:	9f 89       	ldd	r25, Y+23	; 0x17
    1046:	89 2b       	or	r24, r25
    1048:	69 f7       	brne	.-38     	; 0x1024 <__EEPROM_REGION_LENGTH__+0x24>
    104a:	3f c0       	rjmp	.+126    	; 0x10ca <__EEPROM_REGION_LENGTH__+0xca>
    104c:	6a 89       	ldd	r22, Y+18	; 0x12
    104e:	7b 89       	ldd	r23, Y+19	; 0x13
    1050:	8c 89       	ldd	r24, Y+20	; 0x14
    1052:	9d 89       	ldd	r25, Y+21	; 0x15
    1054:	0e 94 3f 14 	call	0x287e	; 0x287e <__fixunssfsi>
    1058:	dc 01       	movw	r26, r24
    105a:	cb 01       	movw	r24, r22
    105c:	9f 8b       	std	Y+23, r25	; 0x17
    105e:	8e 8b       	std	Y+22, r24	; 0x16
    1060:	8e 89       	ldd	r24, Y+22	; 0x16
    1062:	9f 89       	ldd	r25, Y+23	; 0x17
    1064:	9b 8f       	std	Y+27, r25	; 0x1b
    1066:	8a 8f       	std	Y+26, r24	; 0x1a
    1068:	8a 8d       	ldd	r24, Y+26	; 0x1a
    106a:	9b 8d       	ldd	r25, Y+27	; 0x1b
    106c:	01 97       	sbiw	r24, 0x01	; 1
    106e:	f1 f7       	brne	.-4      	; 0x106c <__EEPROM_REGION_LENGTH__+0x6c>
    1070:	9b 8f       	std	Y+27, r25	; 0x1b
    1072:	8a 8f       	std	Y+26, r24	; 0x1a
    1074:	2a c0       	rjmp	.+84     	; 0x10ca <__EEPROM_REGION_LENGTH__+0xca>
    1076:	20 e0       	ldi	r18, 0x00	; 0
    1078:	30 e0       	ldi	r19, 0x00	; 0
    107a:	4f e7       	ldi	r20, 0x7F	; 127
    107c:	53 e4       	ldi	r21, 0x43	; 67
    107e:	6d 81       	ldd	r22, Y+5	; 0x05
    1080:	7e 81       	ldd	r23, Y+6	; 0x06
    1082:	8f 81       	ldd	r24, Y+7	; 0x07
    1084:	98 85       	ldd	r25, Y+8	; 0x08
    1086:	0e 94 e0 14 	call	0x29c0	; 0x29c0 <__gesf2>
    108a:	18 16       	cp	r1, r24
    108c:	ac f4       	brge	.+42     	; 0x10b8 <__EEPROM_REGION_LENGTH__+0xb8>
    108e:	69 85       	ldd	r22, Y+9	; 0x09
    1090:	7a 85       	ldd	r23, Y+10	; 0x0a
    1092:	8b 85       	ldd	r24, Y+11	; 0x0b
    1094:	9c 85       	ldd	r25, Y+12	; 0x0c
    1096:	0e 94 3f 14 	call	0x287e	; 0x287e <__fixunssfsi>
    109a:	dc 01       	movw	r26, r24
    109c:	cb 01       	movw	r24, r22
    109e:	9d 8f       	std	Y+29, r25	; 0x1d
    10a0:	8c 8f       	std	Y+28, r24	; 0x1c
    10a2:	8c 8d       	ldd	r24, Y+28	; 0x1c
    10a4:	9d 8d       	ldd	r25, Y+29	; 0x1d
    10a6:	9f 8f       	std	Y+31, r25	; 0x1f
    10a8:	8e 8f       	std	Y+30, r24	; 0x1e
    10aa:	8e 8d       	ldd	r24, Y+30	; 0x1e
    10ac:	9f 8d       	ldd	r25, Y+31	; 0x1f
    10ae:	01 97       	sbiw	r24, 0x01	; 1
    10b0:	f1 f7       	brne	.-4      	; 0x10ae <__EEPROM_REGION_LENGTH__+0xae>
    10b2:	9f 8f       	std	Y+31, r25	; 0x1f
    10b4:	8e 8f       	std	Y+30, r24	; 0x1e
    10b6:	0f c0       	rjmp	.+30     	; 0x10d6 <__EEPROM_REGION_LENGTH__+0xd6>
    10b8:	6d 81       	ldd	r22, Y+5	; 0x05
    10ba:	7e 81       	ldd	r23, Y+6	; 0x06
    10bc:	8f 81       	ldd	r24, Y+7	; 0x07
    10be:	98 85       	ldd	r25, Y+8	; 0x08
    10c0:	0e 94 3f 14 	call	0x287e	; 0x287e <__fixunssfsi>
    10c4:	dc 01       	movw	r26, r24
    10c6:	cb 01       	movw	r24, r22
    10c8:	8d 87       	std	Y+13, r24	; 0x0d
    10ca:	8d 85       	ldd	r24, Y+13	; 0x0d
    10cc:	88 a3       	std	Y+32, r24	; 0x20
    10ce:	88 a1       	ldd	r24, Y+32	; 0x20
    10d0:	8a 95       	dec	r24
    10d2:	f1 f7       	brne	.-4      	; 0x10d0 <__EEPROM_REGION_LENGTH__+0xd0>
    10d4:	88 a3       	std	Y+32, r24	; 0x20
    10d6:	80 e0       	ldi	r24, 0x00	; 0
    10d8:	e9 da       	rcall	.-2606   	; 0x6ac <lcd_read>
    10da:	a0 96       	adiw	r28, 0x20	; 32
    10dc:	0f b6       	in	r0, 0x3f	; 63
    10de:	f8 94       	cli
    10e0:	de bf       	out	0x3e, r29	; 62
    10e2:	0f be       	out	0x3f, r0	; 63
    10e4:	cd bf       	out	0x3d, r28	; 61
    10e6:	df 91       	pop	r29
    10e8:	cf 91       	pop	r28
    10ea:	1f 91       	pop	r17
    10ec:	08 95       	ret

000010ee <lcd_newline>:
    10ee:	1f 93       	push	r17
    10f0:	cf 93       	push	r28
    10f2:	df 93       	push	r29
    10f4:	1f 92       	push	r1
    10f6:	cd b7       	in	r28, 0x3d	; 61
    10f8:	de b7       	in	r29, 0x3e	; 62
    10fa:	89 83       	std	Y+1, r24	; 0x01
    10fc:	89 81       	ldd	r24, Y+1	; 0x01
    10fe:	80 34       	cpi	r24, 0x40	; 64
    1100:	10 f4       	brcc	.+4      	; 0x1106 <lcd_newline+0x18>
    1102:	10 e4       	ldi	r17, 0x40	; 64
    1104:	01 c0       	rjmp	.+2      	; 0x1108 <lcd_newline+0x1a>
    1106:	10 e0       	ldi	r17, 0x00	; 0
    1108:	80 e8       	ldi	r24, 0x80	; 128
    110a:	81 0f       	add	r24, r17
    110c:	06 d0       	rcall	.+12     	; 0x111a <lcd_command>
    110e:	00 00       	nop
    1110:	0f 90       	pop	r0
    1112:	df 91       	pop	r29
    1114:	cf 91       	pop	r28
    1116:	1f 91       	pop	r17
    1118:	08 95       	ret

0000111a <lcd_command>:
    111a:	cf 93       	push	r28
    111c:	df 93       	push	r29
    111e:	1f 92       	push	r1
    1120:	cd b7       	in	r28, 0x3d	; 61
    1122:	de b7       	in	r29, 0x3e	; 62
    1124:	89 83       	std	Y+1, r24	; 0x01
    1126:	d7 de       	rcall	.-594    	; 0xed6 <lcd_waitbusy>
    1128:	60 e0       	ldi	r22, 0x00	; 0
    112a:	89 81       	ldd	r24, Y+1	; 0x01
    112c:	68 da       	rcall	.-2864   	; 0x5fe <lcd_write>
    112e:	00 00       	nop
    1130:	0f 90       	pop	r0
    1132:	df 91       	pop	r29
    1134:	cf 91       	pop	r28
    1136:	08 95       	ret

00001138 <lcd_gotoxy>:
    1138:	cf 93       	push	r28
    113a:	df 93       	push	r29
    113c:	1f 92       	push	r1
    113e:	1f 92       	push	r1
    1140:	cd b7       	in	r28, 0x3d	; 61
    1142:	de b7       	in	r29, 0x3e	; 62
    1144:	89 83       	std	Y+1, r24	; 0x01
    1146:	6a 83       	std	Y+2, r22	; 0x02
    1148:	8a 81       	ldd	r24, Y+2	; 0x02
    114a:	88 23       	and	r24, r24
    114c:	21 f4       	brne	.+8      	; 0x1156 <lcd_gotoxy+0x1e>
    114e:	89 81       	ldd	r24, Y+1	; 0x01
    1150:	80 58       	subi	r24, 0x80	; 128
    1152:	e3 df       	rcall	.-58     	; 0x111a <lcd_command>
    1154:	03 c0       	rjmp	.+6      	; 0x115c <lcd_gotoxy+0x24>
    1156:	89 81       	ldd	r24, Y+1	; 0x01
    1158:	80 54       	subi	r24, 0x40	; 64
    115a:	df df       	rcall	.-66     	; 0x111a <lcd_command>
    115c:	00 00       	nop
    115e:	0f 90       	pop	r0
    1160:	0f 90       	pop	r0
    1162:	df 91       	pop	r29
    1164:	cf 91       	pop	r28
    1166:	08 95       	ret

00001168 <lcd_clrscr>:
    1168:	cf 93       	push	r28
    116a:	df 93       	push	r29
    116c:	cd b7       	in	r28, 0x3d	; 61
    116e:	de b7       	in	r29, 0x3e	; 62
    1170:	81 e0       	ldi	r24, 0x01	; 1
    1172:	d3 df       	rcall	.-90     	; 0x111a <lcd_command>
    1174:	00 00       	nop
    1176:	df 91       	pop	r29
    1178:	cf 91       	pop	r28
    117a:	08 95       	ret

0000117c <lcd_putc>:
    117c:	cf 93       	push	r28
    117e:	df 93       	push	r29
    1180:	1f 92       	push	r1
    1182:	1f 92       	push	r1
    1184:	cd b7       	in	r28, 0x3d	; 61
    1186:	de b7       	in	r29, 0x3e	; 62
    1188:	8a 83       	std	Y+2, r24	; 0x02
    118a:	a5 de       	rcall	.-694    	; 0xed6 <lcd_waitbusy>
    118c:	89 83       	std	Y+1, r24	; 0x01
    118e:	8a 81       	ldd	r24, Y+2	; 0x02
    1190:	8a 30       	cpi	r24, 0x0A	; 10
    1192:	19 f4       	brne	.+6      	; 0x119a <lcd_putc+0x1e>
    1194:	89 81       	ldd	r24, Y+1	; 0x01
    1196:	ab df       	rcall	.-170    	; 0x10ee <lcd_newline>
    1198:	03 c0       	rjmp	.+6      	; 0x11a0 <lcd_putc+0x24>
    119a:	61 e0       	ldi	r22, 0x01	; 1
    119c:	8a 81       	ldd	r24, Y+2	; 0x02
    119e:	2f da       	rcall	.-2978   	; 0x5fe <lcd_write>
    11a0:	00 00       	nop
    11a2:	0f 90       	pop	r0
    11a4:	0f 90       	pop	r0
    11a6:	df 91       	pop	r29
    11a8:	cf 91       	pop	r28
    11aa:	08 95       	ret

000011ac <lcd_puts>:
    11ac:	1f 93       	push	r17
    11ae:	cf 93       	push	r28
    11b0:	df 93       	push	r29
    11b2:	1f 92       	push	r1
    11b4:	1f 92       	push	r1
    11b6:	cd b7       	in	r28, 0x3d	; 61
    11b8:	de b7       	in	r29, 0x3e	; 62
    11ba:	9a 83       	std	Y+2, r25	; 0x02
    11bc:	89 83       	std	Y+1, r24	; 0x01
    11be:	02 c0       	rjmp	.+4      	; 0x11c4 <lcd_puts+0x18>
    11c0:	81 2f       	mov	r24, r17
    11c2:	dc df       	rcall	.-72     	; 0x117c <lcd_putc>
    11c4:	89 81       	ldd	r24, Y+1	; 0x01
    11c6:	9a 81       	ldd	r25, Y+2	; 0x02
    11c8:	9c 01       	movw	r18, r24
    11ca:	2f 5f       	subi	r18, 0xFF	; 255
    11cc:	3f 4f       	sbci	r19, 0xFF	; 255
    11ce:	3a 83       	std	Y+2, r19	; 0x02
    11d0:	29 83       	std	Y+1, r18	; 0x01
    11d2:	fc 01       	movw	r30, r24
    11d4:	10 81       	ld	r17, Z
    11d6:	11 23       	and	r17, r17
    11d8:	99 f7       	brne	.-26     	; 0x11c0 <lcd_puts+0x14>
    11da:	00 00       	nop
    11dc:	0f 90       	pop	r0
    11de:	0f 90       	pop	r0
    11e0:	df 91       	pop	r29
    11e2:	cf 91       	pop	r28
    11e4:	1f 91       	pop	r17
    11e6:	08 95       	ret

000011e8 <lcd_init>:
                   LCD_DISP_ON_CURSOR      display on, cursor on
                   LCD_DISP_CURSOR_BLINK   display on, cursor on flashing
Returns:  none
*************************************************************************/
void lcd_init(uint8_t dispAttr)
{
    11e8:	0f 93       	push	r16
    11ea:	1f 93       	push	r17
    11ec:	cf 93       	push	r28
    11ee:	df 93       	push	r29
    11f0:	cd b7       	in	r28, 0x3d	; 61
    11f2:	de b7       	in	r29, 0x3e	; 62
    11f4:	c1 5a       	subi	r28, 0xA1	; 161
    11f6:	d1 09       	sbc	r29, r1
    11f8:	0f b6       	in	r0, 0x3f	; 63
    11fa:	f8 94       	cli
    11fc:	de bf       	out	0x3e, r29	; 62
    11fe:	0f be       	out	0x3f, r0	; 63
    1200:	cd bf       	out	0x3d, r28	; 61
    1202:	9e 01       	movw	r18, r28
    1204:	2f 55       	subi	r18, 0x5F	; 95
    1206:	3f 4f       	sbci	r19, 0xFF	; 255
    1208:	f9 01       	movw	r30, r18
    120a:	80 83       	st	Z, r24
    }
    else if ( ( &LCD_DATA0_PORT == &LCD_DATA1_PORT) && ( &LCD_DATA1_PORT == &LCD_DATA2_PORT ) && ( &LCD_DATA2_PORT == &LCD_DATA3_PORT )
           && (LCD_DATA0_PIN == 0 ) && (LCD_DATA1_PIN == 1) && (LCD_DATA2_PIN == 2) && (LCD_DATA3_PIN == 3) )
    {
        /* configure all port bits as output (all LCD data lines on same port, but control lines on different ports) */
        DDR(LCD_DATA0_PORT) |= 0x0F;
    120c:	81 e2       	ldi	r24, 0x21	; 33
    120e:	90 e0       	ldi	r25, 0x00	; 0
    1210:	21 e2       	ldi	r18, 0x21	; 33
    1212:	30 e0       	ldi	r19, 0x00	; 0
    1214:	f9 01       	movw	r30, r18
    1216:	20 81       	ld	r18, Z
    1218:	2f 60       	ori	r18, 0x0F	; 15
    121a:	fc 01       	movw	r30, r24
    121c:	20 83       	st	Z, r18
        DDR(LCD_RS_PORT)    |= _BV(LCD_RS_PIN);
    121e:	81 e0       	ldi	r24, 0x01	; 1
    1220:	91 e0       	ldi	r25, 0x01	; 1
    1222:	21 e0       	ldi	r18, 0x01	; 1
    1224:	31 e0       	ldi	r19, 0x01	; 1
    1226:	f9 01       	movw	r30, r18
    1228:	20 81       	ld	r18, Z
    122a:	28 60       	ori	r18, 0x08	; 8
    122c:	fc 01       	movw	r30, r24
    122e:	20 83       	st	Z, r18
        DDR(LCD_RW_PORT)    |= _BV(LCD_RW_PIN);
    1230:	81 e0       	ldi	r24, 0x01	; 1
    1232:	91 e0       	ldi	r25, 0x01	; 1
    1234:	21 e0       	ldi	r18, 0x01	; 1
    1236:	31 e0       	ldi	r19, 0x01	; 1
    1238:	f9 01       	movw	r30, r18
    123a:	20 81       	ld	r18, Z
    123c:	20 61       	ori	r18, 0x10	; 16
    123e:	fc 01       	movw	r30, r24
    1240:	20 83       	st	Z, r18
        DDR(LCD_E_PORT)     |= _BV(LCD_E_PIN);
    1242:	81 e0       	ldi	r24, 0x01	; 1
    1244:	91 e0       	ldi	r25, 0x01	; 1
    1246:	21 e0       	ldi	r18, 0x01	; 1
    1248:	31 e0       	ldi	r19, 0x01	; 1
    124a:	f9 01       	movw	r30, r18
    124c:	20 81       	ld	r18, Z
    124e:	20 62       	ori	r18, 0x20	; 32
    1250:	fc 01       	movw	r30, r24
    1252:	20 83       	st	Z, r18
    1254:	80 e0       	ldi	r24, 0x00	; 0
    1256:	90 e0       	ldi	r25, 0x00	; 0
    1258:	aa e7       	ldi	r26, 0x7A	; 122
    125a:	b6 e4       	ldi	r27, 0x46	; 70
    125c:	89 83       	std	Y+1, r24	; 0x01
    125e:	9a 83       	std	Y+2, r25	; 0x02
    1260:	ab 83       	std	Y+3, r26	; 0x03
    1262:	bc 83       	std	Y+4, r27	; 0x04
	__builtin_avr_delay_cycles(__ticks_dc);

#else
	uint8_t __ticks;
	double __tmp2 ;
	__tmp = ((F_CPU) / 3e6) * __us;
    1264:	8e 01       	movw	r16, r28
    1266:	0b 57       	subi	r16, 0x7B	; 123
    1268:	1f 4f       	sbci	r17, 0xFF	; 255
    126a:	2b ea       	ldi	r18, 0xAB	; 171
    126c:	3a ea       	ldi	r19, 0xAA	; 170
    126e:	4a ea       	ldi	r20, 0xAA	; 170
    1270:	5e e3       	ldi	r21, 0x3E	; 62
    1272:	69 81       	ldd	r22, Y+1	; 0x01
    1274:	7a 81       	ldd	r23, Y+2	; 0x02
    1276:	8b 81       	ldd	r24, Y+3	; 0x03
    1278:	9c 81       	ldd	r25, Y+4	; 0x04
    127a:	0e 94 e4 14 	call	0x29c8	; 0x29c8 <__mulsf3>
    127e:	dc 01       	movw	r26, r24
    1280:	cb 01       	movw	r24, r22
    1282:	f8 01       	movw	r30, r16
    1284:	80 83       	st	Z, r24
    1286:	91 83       	std	Z+1, r25	; 0x01
    1288:	a2 83       	std	Z+2, r26	; 0x02
    128a:	b3 83       	std	Z+3, r27	; 0x03
	__tmp2 = ((F_CPU) / 4e6) * __us;
    128c:	8e 01       	movw	r16, r28
    128e:	07 57       	subi	r16, 0x77	; 119
    1290:	1f 4f       	sbci	r17, 0xFF	; 255
    1292:	20 e0       	ldi	r18, 0x00	; 0
    1294:	30 e0       	ldi	r19, 0x00	; 0
    1296:	40 e8       	ldi	r20, 0x80	; 128
    1298:	5e e3       	ldi	r21, 0x3E	; 62
    129a:	69 81       	ldd	r22, Y+1	; 0x01
    129c:	7a 81       	ldd	r23, Y+2	; 0x02
    129e:	8b 81       	ldd	r24, Y+3	; 0x03
    12a0:	9c 81       	ldd	r25, Y+4	; 0x04
    12a2:	0e 94 e4 14 	call	0x29c8	; 0x29c8 <__mulsf3>
    12a6:	dc 01       	movw	r26, r24
    12a8:	cb 01       	movw	r24, r22
    12aa:	f8 01       	movw	r30, r16
    12ac:	80 83       	st	Z, r24
    12ae:	91 83       	std	Z+1, r25	; 0x01
    12b0:	a2 83       	std	Z+2, r26	; 0x02
    12b2:	b3 83       	std	Z+3, r27	; 0x03
	if (__tmp < 1.0)
    12b4:	ce 01       	movw	r24, r28
    12b6:	8b 57       	subi	r24, 0x7B	; 123
    12b8:	9f 4f       	sbci	r25, 0xFF	; 255
    12ba:	20 e0       	ldi	r18, 0x00	; 0
    12bc:	30 e0       	ldi	r19, 0x00	; 0
    12be:	40 e8       	ldi	r20, 0x80	; 128
    12c0:	5f e3       	ldi	r21, 0x3F	; 63
    12c2:	fc 01       	movw	r30, r24
    12c4:	60 81       	ld	r22, Z
    12c6:	71 81       	ldd	r23, Z+1	; 0x01
    12c8:	82 81       	ldd	r24, Z+2	; 0x02
    12ca:	93 81       	ldd	r25, Z+3	; 0x03
    12cc:	0e 94 d3 13 	call	0x27a6	; 0x27a6 <__cmpsf2>
    12d0:	88 23       	and	r24, r24
    12d2:	3c f4       	brge	.+14     	; 0x12e2 <lcd_init+0xfa>
		__ticks = 1;
    12d4:	ce 01       	movw	r24, r28
    12d6:	83 57       	subi	r24, 0x73	; 115
    12d8:	9f 4f       	sbci	r25, 0xFF	; 255
    12da:	21 e0       	ldi	r18, 0x01	; 1
    12dc:	fc 01       	movw	r30, r24
    12de:	20 83       	st	Z, r18
    12e0:	2c c1       	rjmp	.+600    	; 0x153a <lcd_init+0x352>
	else if (__tmp2 > 65535)
    12e2:	ce 01       	movw	r24, r28
    12e4:	87 57       	subi	r24, 0x77	; 119
    12e6:	9f 4f       	sbci	r25, 0xFF	; 255
    12e8:	20 e0       	ldi	r18, 0x00	; 0
    12ea:	3f ef       	ldi	r19, 0xFF	; 255
    12ec:	4f e7       	ldi	r20, 0x7F	; 127
    12ee:	57 e4       	ldi	r21, 0x47	; 71
    12f0:	fc 01       	movw	r30, r24
    12f2:	60 81       	ld	r22, Z
    12f4:	71 81       	ldd	r23, Z+1	; 0x01
    12f6:	82 81       	ldd	r24, Z+2	; 0x02
    12f8:	93 81       	ldd	r25, Z+3	; 0x03
    12fa:	0e 94 e0 14 	call	0x29c0	; 0x29c0 <__gesf2>
    12fe:	18 16       	cp	r1, r24
    1300:	0c f0       	brlt	.+2      	; 0x1304 <lcd_init+0x11c>
    1302:	cd c0       	rjmp	.+410    	; 0x149e <lcd_init+0x2b6>
	{
		_delay_ms(__us / 1000.0);
    1304:	20 e0       	ldi	r18, 0x00	; 0
    1306:	30 e0       	ldi	r19, 0x00	; 0
    1308:	4a e7       	ldi	r20, 0x7A	; 122
    130a:	54 e4       	ldi	r21, 0x44	; 68
    130c:	69 81       	ldd	r22, Y+1	; 0x01
    130e:	7a 81       	ldd	r23, Y+2	; 0x02
    1310:	8b 81       	ldd	r24, Y+3	; 0x03
    1312:	9c 81       	ldd	r25, Y+4	; 0x04
    1314:	0e 94 d7 13 	call	0x27ae	; 0x27ae <__divsf3>
    1318:	dc 01       	movw	r26, r24
    131a:	cb 01       	movw	r24, r22
    131c:	9e 01       	movw	r18, r28
    131e:	22 57       	subi	r18, 0x72	; 114
    1320:	3f 4f       	sbci	r19, 0xFF	; 255
    1322:	f9 01       	movw	r30, r18
    1324:	80 83       	st	Z, r24
    1326:	91 83       	std	Z+1, r25	; 0x01
    1328:	a2 83       	std	Z+2, r26	; 0x02
    132a:	b3 83       	std	Z+3, r27	; 0x03

	__builtin_avr_delay_cycles(__ticks_dc);

#else
	uint16_t __ticks;
	__tmp = ((F_CPU) / 4e3) * __ms;
    132c:	8e 01       	movw	r16, r28
    132e:	0e 56       	subi	r16, 0x6E	; 110
    1330:	1f 4f       	sbci	r17, 0xFF	; 255
    1332:	ce 01       	movw	r24, r28
    1334:	82 57       	subi	r24, 0x72	; 114
    1336:	9f 4f       	sbci	r25, 0xFF	; 255
    1338:	20 e0       	ldi	r18, 0x00	; 0
    133a:	30 e0       	ldi	r19, 0x00	; 0
    133c:	4a e7       	ldi	r20, 0x7A	; 122
    133e:	53 e4       	ldi	r21, 0x43	; 67
    1340:	fc 01       	movw	r30, r24
    1342:	60 81       	ld	r22, Z
    1344:	71 81       	ldd	r23, Z+1	; 0x01
    1346:	82 81       	ldd	r24, Z+2	; 0x02
    1348:	93 81       	ldd	r25, Z+3	; 0x03
    134a:	0e 94 e4 14 	call	0x29c8	; 0x29c8 <__mulsf3>
    134e:	dc 01       	movw	r26, r24
    1350:	cb 01       	movw	r24, r22
    1352:	f8 01       	movw	r30, r16
    1354:	80 83       	st	Z, r24
    1356:	91 83       	std	Z+1, r25	; 0x01
    1358:	a2 83       	std	Z+2, r26	; 0x02
    135a:	b3 83       	std	Z+3, r27	; 0x03
	if (__tmp < 1.0)
    135c:	ce 01       	movw	r24, r28
    135e:	8e 56       	subi	r24, 0x6E	; 110
    1360:	9f 4f       	sbci	r25, 0xFF	; 255
    1362:	20 e0       	ldi	r18, 0x00	; 0
    1364:	30 e0       	ldi	r19, 0x00	; 0
    1366:	40 e8       	ldi	r20, 0x80	; 128
    1368:	5f e3       	ldi	r21, 0x3F	; 63
    136a:	fc 01       	movw	r30, r24
    136c:	60 81       	ld	r22, Z
    136e:	71 81       	ldd	r23, Z+1	; 0x01
    1370:	82 81       	ldd	r24, Z+2	; 0x02
    1372:	93 81       	ldd	r25, Z+3	; 0x03
    1374:	0e 94 d3 13 	call	0x27a6	; 0x27a6 <__cmpsf2>
    1378:	88 23       	and	r24, r24
    137a:	4c f4       	brge	.+18     	; 0x138e <lcd_init+0x1a6>
		__ticks = 1;
    137c:	ce 01       	movw	r24, r28
    137e:	8a 56       	subi	r24, 0x6A	; 106
    1380:	9f 4f       	sbci	r25, 0xFF	; 255
    1382:	21 e0       	ldi	r18, 0x01	; 1
    1384:	30 e0       	ldi	r19, 0x00	; 0
    1386:	fc 01       	movw	r30, r24
    1388:	31 83       	std	Z+1, r19	; 0x01
    138a:	20 83       	st	Z, r18
    138c:	6d c0       	rjmp	.+218    	; 0x1468 <lcd_init+0x280>
	else if (__tmp > 65535)
    138e:	ce 01       	movw	r24, r28
    1390:	8e 56       	subi	r24, 0x6E	; 110
    1392:	9f 4f       	sbci	r25, 0xFF	; 255
    1394:	20 e0       	ldi	r18, 0x00	; 0
    1396:	3f ef       	ldi	r19, 0xFF	; 255
    1398:	4f e7       	ldi	r20, 0x7F	; 127
    139a:	57 e4       	ldi	r21, 0x47	; 71
    139c:	fc 01       	movw	r30, r24
    139e:	60 81       	ld	r22, Z
    13a0:	71 81       	ldd	r23, Z+1	; 0x01
    13a2:	82 81       	ldd	r24, Z+2	; 0x02
    13a4:	93 81       	ldd	r25, Z+3	; 0x03
    13a6:	0e 94 e0 14 	call	0x29c0	; 0x29c0 <__gesf2>
    13aa:	18 16       	cp	r1, r24
    13ac:	0c f0       	brlt	.+2      	; 0x13b0 <lcd_init+0x1c8>
    13ae:	4a c0       	rjmp	.+148    	; 0x1444 <lcd_init+0x25c>
	{
		//	__ticks = requested delay in 1/10 ms
		__ticks = (uint16_t) (__ms * 10.0);
    13b0:	ce 01       	movw	r24, r28
    13b2:	82 57       	subi	r24, 0x72	; 114
    13b4:	9f 4f       	sbci	r25, 0xFF	; 255
    13b6:	20 e0       	ldi	r18, 0x00	; 0
    13b8:	30 e0       	ldi	r19, 0x00	; 0
    13ba:	40 e2       	ldi	r20, 0x20	; 32
    13bc:	51 e4       	ldi	r21, 0x41	; 65
    13be:	fc 01       	movw	r30, r24
    13c0:	60 81       	ld	r22, Z
    13c2:	71 81       	ldd	r23, Z+1	; 0x01
    13c4:	82 81       	ldd	r24, Z+2	; 0x02
    13c6:	93 81       	ldd	r25, Z+3	; 0x03
    13c8:	0e 94 e4 14 	call	0x29c8	; 0x29c8 <__mulsf3>
    13cc:	dc 01       	movw	r26, r24
    13ce:	cb 01       	movw	r24, r22
    13d0:	8e 01       	movw	r16, r28
    13d2:	0a 56       	subi	r16, 0x6A	; 106
    13d4:	1f 4f       	sbci	r17, 0xFF	; 255
    13d6:	bc 01       	movw	r22, r24
    13d8:	cd 01       	movw	r24, r26
    13da:	0e 94 3f 14 	call	0x287e	; 0x287e <__fixunssfsi>
    13de:	dc 01       	movw	r26, r24
    13e0:	cb 01       	movw	r24, r22
    13e2:	f8 01       	movw	r30, r16
    13e4:	91 83       	std	Z+1, r25	; 0x01
    13e6:	80 83       	st	Z, r24
    13e8:	24 c0       	rjmp	.+72     	; 0x1432 <lcd_init+0x24a>
    13ea:	ce 01       	movw	r24, r28
    13ec:	88 56       	subi	r24, 0x68	; 104
    13ee:	9f 4f       	sbci	r25, 0xFF	; 255
    13f0:	29 e1       	ldi	r18, 0x19	; 25
    13f2:	30 e0       	ldi	r19, 0x00	; 0
    13f4:	fc 01       	movw	r30, r24
    13f6:	31 83       	std	Z+1, r19	; 0x01
    13f8:	20 83       	st	Z, r18
    milliseconds can be achieved.
 */
void
_delay_loop_2(uint16_t __count)
{
	__asm__ volatile (
    13fa:	ce 01       	movw	r24, r28
    13fc:	88 56       	subi	r24, 0x68	; 104
    13fe:	9f 4f       	sbci	r25, 0xFF	; 255
    1400:	fc 01       	movw	r30, r24
    1402:	80 81       	ld	r24, Z
    1404:	91 81       	ldd	r25, Z+1	; 0x01
    1406:	01 97       	sbiw	r24, 0x01	; 1
    1408:	f1 f7       	brne	.-4      	; 0x1406 <lcd_init+0x21e>
    140a:	9e 01       	movw	r18, r28
    140c:	28 56       	subi	r18, 0x68	; 104
    140e:	3f 4f       	sbci	r19, 0xFF	; 255
    1410:	f9 01       	movw	r30, r18
    1412:	91 83       	std	Z+1, r25	; 0x01
    1414:	80 83       	st	Z, r24
		while(__ticks)
		{
			// wait 1/10 ms
			_delay_loop_2(((F_CPU) / 4e3) / 10);
			__ticks --;
    1416:	ce 01       	movw	r24, r28
    1418:	8a 56       	subi	r24, 0x6A	; 106
    141a:	9f 4f       	sbci	r25, 0xFF	; 255
    141c:	9e 01       	movw	r18, r28
    141e:	2a 56       	subi	r18, 0x6A	; 106
    1420:	3f 4f       	sbci	r19, 0xFF	; 255
    1422:	f9 01       	movw	r30, r18
    1424:	20 81       	ld	r18, Z
    1426:	31 81       	ldd	r19, Z+1	; 0x01
    1428:	21 50       	subi	r18, 0x01	; 1
    142a:	31 09       	sbc	r19, r1
    142c:	fc 01       	movw	r30, r24
    142e:	31 83       	std	Z+1, r19	; 0x01
    1430:	20 83       	st	Z, r18
		__ticks = 1;
	else if (__tmp > 65535)
	{
		//	__ticks = requested delay in 1/10 ms
		__ticks = (uint16_t) (__ms * 10.0);
		while(__ticks)
    1432:	ce 01       	movw	r24, r28
    1434:	8a 56       	subi	r24, 0x6A	; 106
    1436:	9f 4f       	sbci	r25, 0xFF	; 255
    1438:	fc 01       	movw	r30, r24
    143a:	80 81       	ld	r24, Z
    143c:	91 81       	ldd	r25, Z+1	; 0x01
    143e:	89 2b       	or	r24, r25
    1440:	a1 f6       	brne	.-88     	; 0x13ea <lcd_init+0x202>
    1442:	7b c0       	rjmp	.+246    	; 0x153a <lcd_init+0x352>
			__ticks --;
		}
		return;
	}
	else
		__ticks = (uint16_t)__tmp;
    1444:	8e 01       	movw	r16, r28
    1446:	0a 56       	subi	r16, 0x6A	; 106
    1448:	1f 4f       	sbci	r17, 0xFF	; 255
    144a:	ce 01       	movw	r24, r28
    144c:	8e 56       	subi	r24, 0x6E	; 110
    144e:	9f 4f       	sbci	r25, 0xFF	; 255
    1450:	fc 01       	movw	r30, r24
    1452:	60 81       	ld	r22, Z
    1454:	71 81       	ldd	r23, Z+1	; 0x01
    1456:	82 81       	ldd	r24, Z+2	; 0x02
    1458:	93 81       	ldd	r25, Z+3	; 0x03
    145a:	0e 94 3f 14 	call	0x287e	; 0x287e <__fixunssfsi>
    145e:	dc 01       	movw	r26, r24
    1460:	cb 01       	movw	r24, r22
    1462:	f8 01       	movw	r30, r16
    1464:	91 83       	std	Z+1, r25	; 0x01
    1466:	80 83       	st	Z, r24
    1468:	ce 01       	movw	r24, r28
    146a:	86 56       	subi	r24, 0x66	; 102
    146c:	9f 4f       	sbci	r25, 0xFF	; 255
    146e:	9e 01       	movw	r18, r28
    1470:	2a 56       	subi	r18, 0x6A	; 106
    1472:	3f 4f       	sbci	r19, 0xFF	; 255
    1474:	f9 01       	movw	r30, r18
    1476:	20 81       	ld	r18, Z
    1478:	31 81       	ldd	r19, Z+1	; 0x01
    147a:	fc 01       	movw	r30, r24
    147c:	31 83       	std	Z+1, r19	; 0x01
    147e:	20 83       	st	Z, r18
    1480:	ce 01       	movw	r24, r28
    1482:	86 56       	subi	r24, 0x66	; 102
    1484:	9f 4f       	sbci	r25, 0xFF	; 255
    1486:	fc 01       	movw	r30, r24
    1488:	80 81       	ld	r24, Z
    148a:	91 81       	ldd	r25, Z+1	; 0x01
    148c:	01 97       	sbiw	r24, 0x01	; 1
    148e:	f1 f7       	brne	.-4      	; 0x148c <lcd_init+0x2a4>
    1490:	9e 01       	movw	r18, r28
    1492:	26 56       	subi	r18, 0x66	; 102
    1494:	3f 4f       	sbci	r19, 0xFF	; 255
    1496:	f9 01       	movw	r30, r18
    1498:	91 83       	std	Z+1, r25	; 0x01
    149a:	80 83       	st	Z, r24
    149c:	4e c0       	rjmp	.+156    	; 0x153a <lcd_init+0x352>
		__ticks = 1;
	else if (__tmp2 > 65535)
	{
		_delay_ms(__us / 1000.0);
	}
	else if (__tmp > 255)
    149e:	ce 01       	movw	r24, r28
    14a0:	8b 57       	subi	r24, 0x7B	; 123
    14a2:	9f 4f       	sbci	r25, 0xFF	; 255
    14a4:	20 e0       	ldi	r18, 0x00	; 0
    14a6:	30 e0       	ldi	r19, 0x00	; 0
    14a8:	4f e7       	ldi	r20, 0x7F	; 127
    14aa:	53 e4       	ldi	r21, 0x43	; 67
    14ac:	fc 01       	movw	r30, r24
    14ae:	60 81       	ld	r22, Z
    14b0:	71 81       	ldd	r23, Z+1	; 0x01
    14b2:	82 81       	ldd	r24, Z+2	; 0x02
    14b4:	93 81       	ldd	r25, Z+3	; 0x03
    14b6:	0e 94 e0 14 	call	0x29c0	; 0x29c0 <__gesf2>
    14ba:	18 16       	cp	r1, r24
    14bc:	6c f5       	brge	.+90     	; 0x1518 <lcd_init+0x330>
	{
		uint16_t __ticks=(uint16_t)__tmp2;
    14be:	8e 01       	movw	r16, r28
    14c0:	04 56       	subi	r16, 0x64	; 100
    14c2:	1f 4f       	sbci	r17, 0xFF	; 255
    14c4:	ce 01       	movw	r24, r28
    14c6:	87 57       	subi	r24, 0x77	; 119
    14c8:	9f 4f       	sbci	r25, 0xFF	; 255
    14ca:	fc 01       	movw	r30, r24
    14cc:	60 81       	ld	r22, Z
    14ce:	71 81       	ldd	r23, Z+1	; 0x01
    14d0:	82 81       	ldd	r24, Z+2	; 0x02
    14d2:	93 81       	ldd	r25, Z+3	; 0x03
    14d4:	0e 94 3f 14 	call	0x287e	; 0x287e <__fixunssfsi>
    14d8:	dc 01       	movw	r26, r24
    14da:	cb 01       	movw	r24, r22
    14dc:	f8 01       	movw	r30, r16
    14de:	91 83       	std	Z+1, r25	; 0x01
    14e0:	80 83       	st	Z, r24
    14e2:	ce 01       	movw	r24, r28
    14e4:	82 56       	subi	r24, 0x62	; 98
    14e6:	9f 4f       	sbci	r25, 0xFF	; 255
    14e8:	9e 01       	movw	r18, r28
    14ea:	24 56       	subi	r18, 0x64	; 100
    14ec:	3f 4f       	sbci	r19, 0xFF	; 255
    14ee:	f9 01       	movw	r30, r18
    14f0:	20 81       	ld	r18, Z
    14f2:	31 81       	ldd	r19, Z+1	; 0x01
    14f4:	fc 01       	movw	r30, r24
    14f6:	31 83       	std	Z+1, r19	; 0x01
    14f8:	20 83       	st	Z, r18
    14fa:	ce 01       	movw	r24, r28
    14fc:	82 56       	subi	r24, 0x62	; 98
    14fe:	9f 4f       	sbci	r25, 0xFF	; 255
    1500:	fc 01       	movw	r30, r24
    1502:	80 81       	ld	r24, Z
    1504:	91 81       	ldd	r25, Z+1	; 0x01
    1506:	01 97       	sbiw	r24, 0x01	; 1
    1508:	f1 f7       	brne	.-4      	; 0x1506 <lcd_init+0x31e>
    150a:	9e 01       	movw	r18, r28
    150c:	22 56       	subi	r18, 0x62	; 98
    150e:	3f 4f       	sbci	r19, 0xFF	; 255
    1510:	f9 01       	movw	r30, r18
    1512:	91 83       	std	Z+1, r25	; 0x01
    1514:	80 83       	st	Z, r24
    1516:	28 c0       	rjmp	.+80     	; 0x1568 <lcd_init+0x380>
		_delay_loop_2(__ticks);
		return;
	}
	else
		__ticks = (uint8_t)__tmp;
    1518:	8e 01       	movw	r16, r28
    151a:	03 57       	subi	r16, 0x73	; 115
    151c:	1f 4f       	sbci	r17, 0xFF	; 255
    151e:	ce 01       	movw	r24, r28
    1520:	8b 57       	subi	r24, 0x7B	; 123
    1522:	9f 4f       	sbci	r25, 0xFF	; 255
    1524:	fc 01       	movw	r30, r24
    1526:	60 81       	ld	r22, Z
    1528:	71 81       	ldd	r23, Z+1	; 0x01
    152a:	82 81       	ldd	r24, Z+2	; 0x02
    152c:	93 81       	ldd	r25, Z+3	; 0x03
    152e:	0e 94 3f 14 	call	0x287e	; 0x287e <__fixunssfsi>
    1532:	dc 01       	movw	r26, r24
    1534:	cb 01       	movw	r24, r22
    1536:	f8 01       	movw	r30, r16
    1538:	80 83       	st	Z, r24
    153a:	ce 01       	movw	r24, r28
    153c:	80 56       	subi	r24, 0x60	; 96
    153e:	9f 4f       	sbci	r25, 0xFF	; 255
    1540:	9e 01       	movw	r18, r28
    1542:	23 57       	subi	r18, 0x73	; 115
    1544:	3f 4f       	sbci	r19, 0xFF	; 255
    1546:	f9 01       	movw	r30, r18
    1548:	20 81       	ld	r18, Z
    154a:	fc 01       	movw	r30, r24
    154c:	20 83       	st	Z, r18
    can be achieved.
*/
void
_delay_loop_1(uint8_t __count)
{
	__asm__ volatile (
    154e:	ce 01       	movw	r24, r28
    1550:	80 56       	subi	r24, 0x60	; 96
    1552:	9f 4f       	sbci	r25, 0xFF	; 255
    1554:	fc 01       	movw	r30, r24
    1556:	80 81       	ld	r24, Z
    1558:	28 2f       	mov	r18, r24
    155a:	2a 95       	dec	r18
    155c:	f1 f7       	brne	.-4      	; 0x155a <lcd_init+0x372>
    155e:	ce 01       	movw	r24, r28
    1560:	80 56       	subi	r24, 0x60	; 96
    1562:	9f 4f       	sbci	r25, 0xFF	; 255
    1564:	fc 01       	movw	r30, r24
    1566:	20 83       	st	Z, r18
        DDR(LCD_DATA3_PORT) |= _BV(LCD_DATA3_PIN);
    }
    delay(LCD_DELAY_BOOTUP);             /* wait 16ms or more after power-on       */
    
    /* initial write to lcd is 8bit */
    LCD_DATA1_PORT |= _BV(LCD_DATA1_PIN);    // LCD_FUNCTION>>4;
    1568:	82 e2       	ldi	r24, 0x22	; 34
    156a:	90 e0       	ldi	r25, 0x00	; 0
    156c:	22 e2       	ldi	r18, 0x22	; 34
    156e:	30 e0       	ldi	r19, 0x00	; 0
    1570:	f9 01       	movw	r30, r18
    1572:	20 81       	ld	r18, Z
    1574:	22 60       	ori	r18, 0x02	; 2
    1576:	fc 01       	movw	r30, r24
    1578:	20 83       	st	Z, r18
    LCD_DATA0_PORT |= _BV(LCD_DATA0_PIN);    // LCD_FUNCTION_8BIT>>4;
    157a:	82 e2       	ldi	r24, 0x22	; 34
    157c:	90 e0       	ldi	r25, 0x00	; 0
    157e:	22 e2       	ldi	r18, 0x22	; 34
    1580:	30 e0       	ldi	r19, 0x00	; 0
    1582:	f9 01       	movw	r30, r18
    1584:	20 81       	ld	r18, Z
    1586:	21 60       	ori	r18, 0x01	; 1
    1588:	fc 01       	movw	r30, r24
    158a:	20 83       	st	Z, r18
    lcd_e_toggle();
    158c:	0e 94 ea 01 	call	0x3d4	; 0x3d4 <toggle_e>
    1590:	80 e0       	ldi	r24, 0x00	; 0
    1592:	90 e4       	ldi	r25, 0x40	; 64
    1594:	ac e9       	ldi	r26, 0x9C	; 156
    1596:	b5 e4       	ldi	r27, 0x45	; 69
    1598:	8d 83       	std	Y+5, r24	; 0x05
    159a:	9e 83       	std	Y+6, r25	; 0x06
    159c:	af 83       	std	Y+7, r26	; 0x07
    159e:	b8 87       	std	Y+8, r27	; 0x08
	__builtin_avr_delay_cycles(__ticks_dc);

#else
	uint8_t __ticks;
	double __tmp2 ;
	__tmp = ((F_CPU) / 3e6) * __us;
    15a0:	8e 01       	movw	r16, r28
    15a2:	07 59       	subi	r16, 0x97	; 151
    15a4:	1f 4f       	sbci	r17, 0xFF	; 255
    15a6:	2b ea       	ldi	r18, 0xAB	; 171
    15a8:	3a ea       	ldi	r19, 0xAA	; 170
    15aa:	4a ea       	ldi	r20, 0xAA	; 170
    15ac:	5e e3       	ldi	r21, 0x3E	; 62
    15ae:	6d 81       	ldd	r22, Y+5	; 0x05
    15b0:	7e 81       	ldd	r23, Y+6	; 0x06
    15b2:	8f 81       	ldd	r24, Y+7	; 0x07
    15b4:	98 85       	ldd	r25, Y+8	; 0x08
    15b6:	0e 94 e4 14 	call	0x29c8	; 0x29c8 <__mulsf3>
    15ba:	dc 01       	movw	r26, r24
    15bc:	cb 01       	movw	r24, r22
    15be:	f8 01       	movw	r30, r16
    15c0:	80 83       	st	Z, r24
    15c2:	91 83       	std	Z+1, r25	; 0x01
    15c4:	a2 83       	std	Z+2, r26	; 0x02
    15c6:	b3 83       	std	Z+3, r27	; 0x03
	__tmp2 = ((F_CPU) / 4e6) * __us;
    15c8:	8e 01       	movw	r16, r28
    15ca:	03 59       	subi	r16, 0x93	; 147
    15cc:	1f 4f       	sbci	r17, 0xFF	; 255
    15ce:	20 e0       	ldi	r18, 0x00	; 0
    15d0:	30 e0       	ldi	r19, 0x00	; 0
    15d2:	40 e8       	ldi	r20, 0x80	; 128
    15d4:	5e e3       	ldi	r21, 0x3E	; 62
    15d6:	6d 81       	ldd	r22, Y+5	; 0x05
    15d8:	7e 81       	ldd	r23, Y+6	; 0x06
    15da:	8f 81       	ldd	r24, Y+7	; 0x07
    15dc:	98 85       	ldd	r25, Y+8	; 0x08
    15de:	0e 94 e4 14 	call	0x29c8	; 0x29c8 <__mulsf3>
    15e2:	dc 01       	movw	r26, r24
    15e4:	cb 01       	movw	r24, r22
    15e6:	f8 01       	movw	r30, r16
    15e8:	80 83       	st	Z, r24
    15ea:	91 83       	std	Z+1, r25	; 0x01
    15ec:	a2 83       	std	Z+2, r26	; 0x02
    15ee:	b3 83       	std	Z+3, r27	; 0x03
	if (__tmp < 1.0)
    15f0:	ce 01       	movw	r24, r28
    15f2:	87 59       	subi	r24, 0x97	; 151
    15f4:	9f 4f       	sbci	r25, 0xFF	; 255
    15f6:	20 e0       	ldi	r18, 0x00	; 0
    15f8:	30 e0       	ldi	r19, 0x00	; 0
    15fa:	40 e8       	ldi	r20, 0x80	; 128
    15fc:	5f e3       	ldi	r21, 0x3F	; 63
    15fe:	fc 01       	movw	r30, r24
    1600:	60 81       	ld	r22, Z
    1602:	71 81       	ldd	r23, Z+1	; 0x01
    1604:	82 81       	ldd	r24, Z+2	; 0x02
    1606:	93 81       	ldd	r25, Z+3	; 0x03
    1608:	0e 94 d3 13 	call	0x27a6	; 0x27a6 <__cmpsf2>
    160c:	88 23       	and	r24, r24
    160e:	3c f4       	brge	.+14     	; 0x161e <lcd_init+0x436>
		__ticks = 1;
    1610:	ce 01       	movw	r24, r28
    1612:	8f 58       	subi	r24, 0x8F	; 143
    1614:	9f 4f       	sbci	r25, 0xFF	; 255
    1616:	21 e0       	ldi	r18, 0x01	; 1
    1618:	fc 01       	movw	r30, r24
    161a:	20 83       	st	Z, r18
    161c:	2c c1       	rjmp	.+600    	; 0x1876 <lcd_init+0x68e>
	else if (__tmp2 > 65535)
    161e:	ce 01       	movw	r24, r28
    1620:	83 59       	subi	r24, 0x93	; 147
    1622:	9f 4f       	sbci	r25, 0xFF	; 255
    1624:	20 e0       	ldi	r18, 0x00	; 0
    1626:	3f ef       	ldi	r19, 0xFF	; 255
    1628:	4f e7       	ldi	r20, 0x7F	; 127
    162a:	57 e4       	ldi	r21, 0x47	; 71
    162c:	fc 01       	movw	r30, r24
    162e:	60 81       	ld	r22, Z
    1630:	71 81       	ldd	r23, Z+1	; 0x01
    1632:	82 81       	ldd	r24, Z+2	; 0x02
    1634:	93 81       	ldd	r25, Z+3	; 0x03
    1636:	0e 94 e0 14 	call	0x29c0	; 0x29c0 <__gesf2>
    163a:	18 16       	cp	r1, r24
    163c:	0c f0       	brlt	.+2      	; 0x1640 <lcd_init+0x458>
    163e:	cd c0       	rjmp	.+410    	; 0x17da <lcd_init+0x5f2>
	{
		_delay_ms(__us / 1000.0);
    1640:	20 e0       	ldi	r18, 0x00	; 0
    1642:	30 e0       	ldi	r19, 0x00	; 0
    1644:	4a e7       	ldi	r20, 0x7A	; 122
    1646:	54 e4       	ldi	r21, 0x44	; 68
    1648:	6d 81       	ldd	r22, Y+5	; 0x05
    164a:	7e 81       	ldd	r23, Y+6	; 0x06
    164c:	8f 81       	ldd	r24, Y+7	; 0x07
    164e:	98 85       	ldd	r25, Y+8	; 0x08
    1650:	0e 94 d7 13 	call	0x27ae	; 0x27ae <__divsf3>
    1654:	dc 01       	movw	r26, r24
    1656:	cb 01       	movw	r24, r22
    1658:	9e 01       	movw	r18, r28
    165a:	2e 58       	subi	r18, 0x8E	; 142
    165c:	3f 4f       	sbci	r19, 0xFF	; 255
    165e:	f9 01       	movw	r30, r18
    1660:	80 83       	st	Z, r24
    1662:	91 83       	std	Z+1, r25	; 0x01
    1664:	a2 83       	std	Z+2, r26	; 0x02
    1666:	b3 83       	std	Z+3, r27	; 0x03

	__builtin_avr_delay_cycles(__ticks_dc);

#else
	uint16_t __ticks;
	__tmp = ((F_CPU) / 4e3) * __ms;
    1668:	8e 01       	movw	r16, r28
    166a:	0a 58       	subi	r16, 0x8A	; 138
    166c:	1f 4f       	sbci	r17, 0xFF	; 255
    166e:	ce 01       	movw	r24, r28
    1670:	8e 58       	subi	r24, 0x8E	; 142
    1672:	9f 4f       	sbci	r25, 0xFF	; 255
    1674:	20 e0       	ldi	r18, 0x00	; 0
    1676:	30 e0       	ldi	r19, 0x00	; 0
    1678:	4a e7       	ldi	r20, 0x7A	; 122
    167a:	53 e4       	ldi	r21, 0x43	; 67
    167c:	fc 01       	movw	r30, r24
    167e:	60 81       	ld	r22, Z
    1680:	71 81       	ldd	r23, Z+1	; 0x01
    1682:	82 81       	ldd	r24, Z+2	; 0x02
    1684:	93 81       	ldd	r25, Z+3	; 0x03
    1686:	0e 94 e4 14 	call	0x29c8	; 0x29c8 <__mulsf3>
    168a:	dc 01       	movw	r26, r24
    168c:	cb 01       	movw	r24, r22
    168e:	f8 01       	movw	r30, r16
    1690:	80 83       	st	Z, r24
    1692:	91 83       	std	Z+1, r25	; 0x01
    1694:	a2 83       	std	Z+2, r26	; 0x02
    1696:	b3 83       	std	Z+3, r27	; 0x03
	if (__tmp < 1.0)
    1698:	ce 01       	movw	r24, r28
    169a:	8a 58       	subi	r24, 0x8A	; 138
    169c:	9f 4f       	sbci	r25, 0xFF	; 255
    169e:	20 e0       	ldi	r18, 0x00	; 0
    16a0:	30 e0       	ldi	r19, 0x00	; 0
    16a2:	40 e8       	ldi	r20, 0x80	; 128
    16a4:	5f e3       	ldi	r21, 0x3F	; 63
    16a6:	fc 01       	movw	r30, r24
    16a8:	60 81       	ld	r22, Z
    16aa:	71 81       	ldd	r23, Z+1	; 0x01
    16ac:	82 81       	ldd	r24, Z+2	; 0x02
    16ae:	93 81       	ldd	r25, Z+3	; 0x03
    16b0:	0e 94 d3 13 	call	0x27a6	; 0x27a6 <__cmpsf2>
    16b4:	88 23       	and	r24, r24
    16b6:	4c f4       	brge	.+18     	; 0x16ca <lcd_init+0x4e2>
		__ticks = 1;
    16b8:	ce 01       	movw	r24, r28
    16ba:	86 58       	subi	r24, 0x86	; 134
    16bc:	9f 4f       	sbci	r25, 0xFF	; 255
    16be:	21 e0       	ldi	r18, 0x01	; 1
    16c0:	30 e0       	ldi	r19, 0x00	; 0
    16c2:	fc 01       	movw	r30, r24
    16c4:	31 83       	std	Z+1, r19	; 0x01
    16c6:	20 83       	st	Z, r18
    16c8:	6d c0       	rjmp	.+218    	; 0x17a4 <lcd_init+0x5bc>
	else if (__tmp > 65535)
    16ca:	ce 01       	movw	r24, r28
    16cc:	8a 58       	subi	r24, 0x8A	; 138
    16ce:	9f 4f       	sbci	r25, 0xFF	; 255
    16d0:	20 e0       	ldi	r18, 0x00	; 0
    16d2:	3f ef       	ldi	r19, 0xFF	; 255
    16d4:	4f e7       	ldi	r20, 0x7F	; 127
    16d6:	57 e4       	ldi	r21, 0x47	; 71
    16d8:	fc 01       	movw	r30, r24
    16da:	60 81       	ld	r22, Z
    16dc:	71 81       	ldd	r23, Z+1	; 0x01
    16de:	82 81       	ldd	r24, Z+2	; 0x02
    16e0:	93 81       	ldd	r25, Z+3	; 0x03
    16e2:	0e 94 e0 14 	call	0x29c0	; 0x29c0 <__gesf2>
    16e6:	18 16       	cp	r1, r24
    16e8:	0c f0       	brlt	.+2      	; 0x16ec <lcd_init+0x504>
    16ea:	4a c0       	rjmp	.+148    	; 0x1780 <lcd_init+0x598>
	{
		//	__ticks = requested delay in 1/10 ms
		__ticks = (uint16_t) (__ms * 10.0);
    16ec:	ce 01       	movw	r24, r28
    16ee:	8e 58       	subi	r24, 0x8E	; 142
    16f0:	9f 4f       	sbci	r25, 0xFF	; 255
    16f2:	20 e0       	ldi	r18, 0x00	; 0
    16f4:	30 e0       	ldi	r19, 0x00	; 0
    16f6:	40 e2       	ldi	r20, 0x20	; 32
    16f8:	51 e4       	ldi	r21, 0x41	; 65
    16fa:	fc 01       	movw	r30, r24
    16fc:	60 81       	ld	r22, Z
    16fe:	71 81       	ldd	r23, Z+1	; 0x01
    1700:	82 81       	ldd	r24, Z+2	; 0x02
    1702:	93 81       	ldd	r25, Z+3	; 0x03
    1704:	0e 94 e4 14 	call	0x29c8	; 0x29c8 <__mulsf3>
    1708:	dc 01       	movw	r26, r24
    170a:	cb 01       	movw	r24, r22
    170c:	8e 01       	movw	r16, r28
    170e:	06 58       	subi	r16, 0x86	; 134
    1710:	1f 4f       	sbci	r17, 0xFF	; 255
    1712:	bc 01       	movw	r22, r24
    1714:	cd 01       	movw	r24, r26
    1716:	0e 94 3f 14 	call	0x287e	; 0x287e <__fixunssfsi>
    171a:	dc 01       	movw	r26, r24
    171c:	cb 01       	movw	r24, r22
    171e:	f8 01       	movw	r30, r16
    1720:	91 83       	std	Z+1, r25	; 0x01
    1722:	80 83       	st	Z, r24
    1724:	24 c0       	rjmp	.+72     	; 0x176e <lcd_init+0x586>
    1726:	ce 01       	movw	r24, r28
    1728:	84 58       	subi	r24, 0x84	; 132
    172a:	9f 4f       	sbci	r25, 0xFF	; 255
    172c:	29 e1       	ldi	r18, 0x19	; 25
    172e:	30 e0       	ldi	r19, 0x00	; 0
    1730:	fc 01       	movw	r30, r24
    1732:	31 83       	std	Z+1, r19	; 0x01
    1734:	20 83       	st	Z, r18
    milliseconds can be achieved.
 */
void
_delay_loop_2(uint16_t __count)
{
	__asm__ volatile (
    1736:	ce 01       	movw	r24, r28
    1738:	84 58       	subi	r24, 0x84	; 132
    173a:	9f 4f       	sbci	r25, 0xFF	; 255
    173c:	fc 01       	movw	r30, r24
    173e:	80 81       	ld	r24, Z
    1740:	91 81       	ldd	r25, Z+1	; 0x01
    1742:	01 97       	sbiw	r24, 0x01	; 1
    1744:	f1 f7       	brne	.-4      	; 0x1742 <lcd_init+0x55a>
    1746:	9e 01       	movw	r18, r28
    1748:	24 58       	subi	r18, 0x84	; 132
    174a:	3f 4f       	sbci	r19, 0xFF	; 255
    174c:	f9 01       	movw	r30, r18
    174e:	91 83       	std	Z+1, r25	; 0x01
    1750:	80 83       	st	Z, r24
		while(__ticks)
		{
			// wait 1/10 ms
			_delay_loop_2(((F_CPU) / 4e3) / 10);
			__ticks --;
    1752:	ce 01       	movw	r24, r28
    1754:	86 58       	subi	r24, 0x86	; 134
    1756:	9f 4f       	sbci	r25, 0xFF	; 255
    1758:	9e 01       	movw	r18, r28
    175a:	26 58       	subi	r18, 0x86	; 134
    175c:	3f 4f       	sbci	r19, 0xFF	; 255
    175e:	f9 01       	movw	r30, r18
    1760:	20 81       	ld	r18, Z
    1762:	31 81       	ldd	r19, Z+1	; 0x01
    1764:	21 50       	subi	r18, 0x01	; 1
    1766:	31 09       	sbc	r19, r1
    1768:	fc 01       	movw	r30, r24
    176a:	31 83       	std	Z+1, r19	; 0x01
    176c:	20 83       	st	Z, r18
		__ticks = 1;
	else if (__tmp > 65535)
	{
		//	__ticks = requested delay in 1/10 ms
		__ticks = (uint16_t) (__ms * 10.0);
		while(__ticks)
    176e:	ce 01       	movw	r24, r28
    1770:	86 58       	subi	r24, 0x86	; 134
    1772:	9f 4f       	sbci	r25, 0xFF	; 255
    1774:	fc 01       	movw	r30, r24
    1776:	80 81       	ld	r24, Z
    1778:	91 81       	ldd	r25, Z+1	; 0x01
    177a:	89 2b       	or	r24, r25
    177c:	a1 f6       	brne	.-88     	; 0x1726 <lcd_init+0x53e>
    177e:	7b c0       	rjmp	.+246    	; 0x1876 <lcd_init+0x68e>
			__ticks --;
		}
		return;
	}
	else
		__ticks = (uint16_t)__tmp;
    1780:	8e 01       	movw	r16, r28
    1782:	06 58       	subi	r16, 0x86	; 134
    1784:	1f 4f       	sbci	r17, 0xFF	; 255
    1786:	ce 01       	movw	r24, r28
    1788:	8a 58       	subi	r24, 0x8A	; 138
    178a:	9f 4f       	sbci	r25, 0xFF	; 255
    178c:	fc 01       	movw	r30, r24
    178e:	60 81       	ld	r22, Z
    1790:	71 81       	ldd	r23, Z+1	; 0x01
    1792:	82 81       	ldd	r24, Z+2	; 0x02
    1794:	93 81       	ldd	r25, Z+3	; 0x03
    1796:	0e 94 3f 14 	call	0x287e	; 0x287e <__fixunssfsi>
    179a:	dc 01       	movw	r26, r24
    179c:	cb 01       	movw	r24, r22
    179e:	f8 01       	movw	r30, r16
    17a0:	91 83       	std	Z+1, r25	; 0x01
    17a2:	80 83       	st	Z, r24
    17a4:	ce 01       	movw	r24, r28
    17a6:	82 58       	subi	r24, 0x82	; 130
    17a8:	9f 4f       	sbci	r25, 0xFF	; 255
    17aa:	9e 01       	movw	r18, r28
    17ac:	26 58       	subi	r18, 0x86	; 134
    17ae:	3f 4f       	sbci	r19, 0xFF	; 255
    17b0:	f9 01       	movw	r30, r18
    17b2:	20 81       	ld	r18, Z
    17b4:	31 81       	ldd	r19, Z+1	; 0x01
    17b6:	fc 01       	movw	r30, r24
    17b8:	31 83       	std	Z+1, r19	; 0x01
    17ba:	20 83       	st	Z, r18
    17bc:	ce 01       	movw	r24, r28
    17be:	82 58       	subi	r24, 0x82	; 130
    17c0:	9f 4f       	sbci	r25, 0xFF	; 255
    17c2:	fc 01       	movw	r30, r24
    17c4:	80 81       	ld	r24, Z
    17c6:	91 81       	ldd	r25, Z+1	; 0x01
    17c8:	01 97       	sbiw	r24, 0x01	; 1
    17ca:	f1 f7       	brne	.-4      	; 0x17c8 <lcd_init+0x5e0>
    17cc:	9e 01       	movw	r18, r28
    17ce:	22 58       	subi	r18, 0x82	; 130
    17d0:	3f 4f       	sbci	r19, 0xFF	; 255
    17d2:	f9 01       	movw	r30, r18
    17d4:	91 83       	std	Z+1, r25	; 0x01
    17d6:	80 83       	st	Z, r24
    17d8:	4e c0       	rjmp	.+156    	; 0x1876 <lcd_init+0x68e>
		__ticks = 1;
	else if (__tmp2 > 65535)
	{
		_delay_ms(__us / 1000.0);
	}
	else if (__tmp > 255)
    17da:	ce 01       	movw	r24, r28
    17dc:	87 59       	subi	r24, 0x97	; 151
    17de:	9f 4f       	sbci	r25, 0xFF	; 255
    17e0:	20 e0       	ldi	r18, 0x00	; 0
    17e2:	30 e0       	ldi	r19, 0x00	; 0
    17e4:	4f e7       	ldi	r20, 0x7F	; 127
    17e6:	53 e4       	ldi	r21, 0x43	; 67
    17e8:	fc 01       	movw	r30, r24
    17ea:	60 81       	ld	r22, Z
    17ec:	71 81       	ldd	r23, Z+1	; 0x01
    17ee:	82 81       	ldd	r24, Z+2	; 0x02
    17f0:	93 81       	ldd	r25, Z+3	; 0x03
    17f2:	0e 94 e0 14 	call	0x29c0	; 0x29c0 <__gesf2>
    17f6:	18 16       	cp	r1, r24
    17f8:	6c f5       	brge	.+90     	; 0x1854 <lcd_init+0x66c>
	{
		uint16_t __ticks=(uint16_t)__tmp2;
    17fa:	8e 01       	movw	r16, r28
    17fc:	00 58       	subi	r16, 0x80	; 128
    17fe:	1f 4f       	sbci	r17, 0xFF	; 255
    1800:	ce 01       	movw	r24, r28
    1802:	83 59       	subi	r24, 0x93	; 147
    1804:	9f 4f       	sbci	r25, 0xFF	; 255
    1806:	fc 01       	movw	r30, r24
    1808:	60 81       	ld	r22, Z
    180a:	71 81       	ldd	r23, Z+1	; 0x01
    180c:	82 81       	ldd	r24, Z+2	; 0x02
    180e:	93 81       	ldd	r25, Z+3	; 0x03
    1810:	0e 94 3f 14 	call	0x287e	; 0x287e <__fixunssfsi>
    1814:	dc 01       	movw	r26, r24
    1816:	cb 01       	movw	r24, r22
    1818:	f8 01       	movw	r30, r16
    181a:	91 83       	std	Z+1, r25	; 0x01
    181c:	80 83       	st	Z, r24
    181e:	ce 01       	movw	r24, r28
    1820:	8e 57       	subi	r24, 0x7E	; 126
    1822:	9f 4f       	sbci	r25, 0xFF	; 255
    1824:	9e 01       	movw	r18, r28
    1826:	20 58       	subi	r18, 0x80	; 128
    1828:	3f 4f       	sbci	r19, 0xFF	; 255
    182a:	f9 01       	movw	r30, r18
    182c:	20 81       	ld	r18, Z
    182e:	31 81       	ldd	r19, Z+1	; 0x01
    1830:	fc 01       	movw	r30, r24
    1832:	31 83       	std	Z+1, r19	; 0x01
    1834:	20 83       	st	Z, r18
    1836:	ce 01       	movw	r24, r28
    1838:	8e 57       	subi	r24, 0x7E	; 126
    183a:	9f 4f       	sbci	r25, 0xFF	; 255
    183c:	fc 01       	movw	r30, r24
    183e:	80 81       	ld	r24, Z
    1840:	91 81       	ldd	r25, Z+1	; 0x01
    1842:	01 97       	sbiw	r24, 0x01	; 1
    1844:	f1 f7       	brne	.-4      	; 0x1842 <lcd_init+0x65a>
    1846:	9e 01       	movw	r18, r28
    1848:	2e 57       	subi	r18, 0x7E	; 126
    184a:	3f 4f       	sbci	r19, 0xFF	; 255
    184c:	f9 01       	movw	r30, r18
    184e:	91 83       	std	Z+1, r25	; 0x01
    1850:	80 83       	st	Z, r24
    1852:	28 c0       	rjmp	.+80     	; 0x18a4 <lcd_init+0x6bc>
		_delay_loop_2(__ticks);
		return;
	}
	else
		__ticks = (uint8_t)__tmp;
    1854:	8e 01       	movw	r16, r28
    1856:	0f 58       	subi	r16, 0x8F	; 143
    1858:	1f 4f       	sbci	r17, 0xFF	; 255
    185a:	ce 01       	movw	r24, r28
    185c:	87 59       	subi	r24, 0x97	; 151
    185e:	9f 4f       	sbci	r25, 0xFF	; 255
    1860:	fc 01       	movw	r30, r24
    1862:	60 81       	ld	r22, Z
    1864:	71 81       	ldd	r23, Z+1	; 0x01
    1866:	82 81       	ldd	r24, Z+2	; 0x02
    1868:	93 81       	ldd	r25, Z+3	; 0x03
    186a:	0e 94 3f 14 	call	0x287e	; 0x287e <__fixunssfsi>
    186e:	dc 01       	movw	r26, r24
    1870:	cb 01       	movw	r24, r22
    1872:	f8 01       	movw	r30, r16
    1874:	80 83       	st	Z, r24
    1876:	ce 01       	movw	r24, r28
    1878:	8c 57       	subi	r24, 0x7C	; 124
    187a:	9f 4f       	sbci	r25, 0xFF	; 255
    187c:	9e 01       	movw	r18, r28
    187e:	2f 58       	subi	r18, 0x8F	; 143
    1880:	3f 4f       	sbci	r19, 0xFF	; 255
    1882:	f9 01       	movw	r30, r18
    1884:	20 81       	ld	r18, Z
    1886:	fc 01       	movw	r30, r24
    1888:	20 83       	st	Z, r18
    can be achieved.
*/
void
_delay_loop_1(uint8_t __count)
{
	__asm__ volatile (
    188a:	ce 01       	movw	r24, r28
    188c:	8c 57       	subi	r24, 0x7C	; 124
    188e:	9f 4f       	sbci	r25, 0xFF	; 255
    1890:	fc 01       	movw	r30, r24
    1892:	80 81       	ld	r24, Z
    1894:	28 2f       	mov	r18, r24
    1896:	2a 95       	dec	r18
    1898:	f1 f7       	brne	.-4      	; 0x1896 <lcd_init+0x6ae>
    189a:	ce 01       	movw	r24, r28
    189c:	8c 57       	subi	r24, 0x7C	; 124
    189e:	9f 4f       	sbci	r25, 0xFF	; 255
    18a0:	fc 01       	movw	r30, r24
    18a2:	20 83       	st	Z, r18
    delay(LCD_DELAY_INIT);               /* delay, busy flag can't be checked here */
   
    /* repeat last command */ 
    lcd_e_toggle();      
    18a4:	0e 94 ea 01 	call	0x3d4	; 0x3d4 <toggle_e>
    18a8:	80 e0       	ldi	r24, 0x00	; 0
    18aa:	90 e0       	ldi	r25, 0x00	; 0
    18ac:	a0 e8       	ldi	r26, 0x80	; 128
    18ae:	b2 e4       	ldi	r27, 0x42	; 66
    18b0:	89 87       	std	Y+9, r24	; 0x09
    18b2:	9a 87       	std	Y+10, r25	; 0x0a
    18b4:	ab 87       	std	Y+11, r26	; 0x0b
    18b6:	bc 87       	std	Y+12, r27	; 0x0c
	__builtin_avr_delay_cycles(__ticks_dc);

#else
	uint8_t __ticks;
	double __tmp2 ;
	__tmp = ((F_CPU) / 3e6) * __us;
    18b8:	8e 01       	movw	r16, r28
    18ba:	03 5b       	subi	r16, 0xB3	; 179
    18bc:	1f 4f       	sbci	r17, 0xFF	; 255
    18be:	2b ea       	ldi	r18, 0xAB	; 171
    18c0:	3a ea       	ldi	r19, 0xAA	; 170
    18c2:	4a ea       	ldi	r20, 0xAA	; 170
    18c4:	5e e3       	ldi	r21, 0x3E	; 62
    18c6:	69 85       	ldd	r22, Y+9	; 0x09
    18c8:	7a 85       	ldd	r23, Y+10	; 0x0a
    18ca:	8b 85       	ldd	r24, Y+11	; 0x0b
    18cc:	9c 85       	ldd	r25, Y+12	; 0x0c
    18ce:	0e 94 e4 14 	call	0x29c8	; 0x29c8 <__mulsf3>
    18d2:	dc 01       	movw	r26, r24
    18d4:	cb 01       	movw	r24, r22
    18d6:	f8 01       	movw	r30, r16
    18d8:	80 83       	st	Z, r24
    18da:	91 83       	std	Z+1, r25	; 0x01
    18dc:	a2 83       	std	Z+2, r26	; 0x02
    18de:	b3 83       	std	Z+3, r27	; 0x03
	__tmp2 = ((F_CPU) / 4e6) * __us;
    18e0:	8e 01       	movw	r16, r28
    18e2:	0f 5a       	subi	r16, 0xAF	; 175
    18e4:	1f 4f       	sbci	r17, 0xFF	; 255
    18e6:	20 e0       	ldi	r18, 0x00	; 0
    18e8:	30 e0       	ldi	r19, 0x00	; 0
    18ea:	40 e8       	ldi	r20, 0x80	; 128
    18ec:	5e e3       	ldi	r21, 0x3E	; 62
    18ee:	69 85       	ldd	r22, Y+9	; 0x09
    18f0:	7a 85       	ldd	r23, Y+10	; 0x0a
    18f2:	8b 85       	ldd	r24, Y+11	; 0x0b
    18f4:	9c 85       	ldd	r25, Y+12	; 0x0c
    18f6:	0e 94 e4 14 	call	0x29c8	; 0x29c8 <__mulsf3>
    18fa:	dc 01       	movw	r26, r24
    18fc:	cb 01       	movw	r24, r22
    18fe:	f8 01       	movw	r30, r16
    1900:	80 83       	st	Z, r24
    1902:	91 83       	std	Z+1, r25	; 0x01
    1904:	a2 83       	std	Z+2, r26	; 0x02
    1906:	b3 83       	std	Z+3, r27	; 0x03
	if (__tmp < 1.0)
    1908:	ce 01       	movw	r24, r28
    190a:	83 5b       	subi	r24, 0xB3	; 179
    190c:	9f 4f       	sbci	r25, 0xFF	; 255
    190e:	20 e0       	ldi	r18, 0x00	; 0
    1910:	30 e0       	ldi	r19, 0x00	; 0
    1912:	40 e8       	ldi	r20, 0x80	; 128
    1914:	5f e3       	ldi	r21, 0x3F	; 63
    1916:	fc 01       	movw	r30, r24
    1918:	60 81       	ld	r22, Z
    191a:	71 81       	ldd	r23, Z+1	; 0x01
    191c:	82 81       	ldd	r24, Z+2	; 0x02
    191e:	93 81       	ldd	r25, Z+3	; 0x03
    1920:	42 d7       	rcall	.+3716   	; 0x27a6 <__cmpsf2>
    1922:	88 23       	and	r24, r24
    1924:	3c f4       	brge	.+14     	; 0x1934 <lcd_init+0x74c>
		__ticks = 1;
    1926:	ce 01       	movw	r24, r28
    1928:	8b 5a       	subi	r24, 0xAB	; 171
    192a:	9f 4f       	sbci	r25, 0xFF	; 255
    192c:	21 e0       	ldi	r18, 0x01	; 1
    192e:	fc 01       	movw	r30, r24
    1930:	20 83       	st	Z, r18
    1932:	23 c1       	rjmp	.+582    	; 0x1b7a <lcd_init+0x992>
	else if (__tmp2 > 65535)
    1934:	ce 01       	movw	r24, r28
    1936:	8f 5a       	subi	r24, 0xAF	; 175
    1938:	9f 4f       	sbci	r25, 0xFF	; 255
    193a:	20 e0       	ldi	r18, 0x00	; 0
    193c:	3f ef       	ldi	r19, 0xFF	; 255
    193e:	4f e7       	ldi	r20, 0x7F	; 127
    1940:	57 e4       	ldi	r21, 0x47	; 71
    1942:	fc 01       	movw	r30, r24
    1944:	60 81       	ld	r22, Z
    1946:	71 81       	ldd	r23, Z+1	; 0x01
    1948:	82 81       	ldd	r24, Z+2	; 0x02
    194a:	93 81       	ldd	r25, Z+3	; 0x03
    194c:	0e 94 e0 14 	call	0x29c0	; 0x29c0 <__gesf2>
    1950:	18 16       	cp	r1, r24
    1952:	0c f0       	brlt	.+2      	; 0x1956 <lcd_init+0x76e>
    1954:	c7 c0       	rjmp	.+398    	; 0x1ae4 <lcd_init+0x8fc>
	{
		_delay_ms(__us / 1000.0);
    1956:	20 e0       	ldi	r18, 0x00	; 0
    1958:	30 e0       	ldi	r19, 0x00	; 0
    195a:	4a e7       	ldi	r20, 0x7A	; 122
    195c:	54 e4       	ldi	r21, 0x44	; 68
    195e:	69 85       	ldd	r22, Y+9	; 0x09
    1960:	7a 85       	ldd	r23, Y+10	; 0x0a
    1962:	8b 85       	ldd	r24, Y+11	; 0x0b
    1964:	9c 85       	ldd	r25, Y+12	; 0x0c
    1966:	23 d7       	rcall	.+3654   	; 0x27ae <__divsf3>
    1968:	dc 01       	movw	r26, r24
    196a:	cb 01       	movw	r24, r22
    196c:	9e 01       	movw	r18, r28
    196e:	2a 5a       	subi	r18, 0xAA	; 170
    1970:	3f 4f       	sbci	r19, 0xFF	; 255
    1972:	f9 01       	movw	r30, r18
    1974:	80 83       	st	Z, r24
    1976:	91 83       	std	Z+1, r25	; 0x01
    1978:	a2 83       	std	Z+2, r26	; 0x02
    197a:	b3 83       	std	Z+3, r27	; 0x03

	__builtin_avr_delay_cycles(__ticks_dc);

#else
	uint16_t __ticks;
	__tmp = ((F_CPU) / 4e3) * __ms;
    197c:	8e 01       	movw	r16, r28
    197e:	06 5a       	subi	r16, 0xA6	; 166
    1980:	1f 4f       	sbci	r17, 0xFF	; 255
    1982:	ce 01       	movw	r24, r28
    1984:	8a 5a       	subi	r24, 0xAA	; 170
    1986:	9f 4f       	sbci	r25, 0xFF	; 255
    1988:	20 e0       	ldi	r18, 0x00	; 0
    198a:	30 e0       	ldi	r19, 0x00	; 0
    198c:	4a e7       	ldi	r20, 0x7A	; 122
    198e:	53 e4       	ldi	r21, 0x43	; 67
    1990:	fc 01       	movw	r30, r24
    1992:	60 81       	ld	r22, Z
    1994:	71 81       	ldd	r23, Z+1	; 0x01
    1996:	82 81       	ldd	r24, Z+2	; 0x02
    1998:	93 81       	ldd	r25, Z+3	; 0x03
    199a:	0e 94 e4 14 	call	0x29c8	; 0x29c8 <__mulsf3>
    199e:	dc 01       	movw	r26, r24
    19a0:	cb 01       	movw	r24, r22
    19a2:	f8 01       	movw	r30, r16
    19a4:	80 83       	st	Z, r24
    19a6:	91 83       	std	Z+1, r25	; 0x01
    19a8:	a2 83       	std	Z+2, r26	; 0x02
    19aa:	b3 83       	std	Z+3, r27	; 0x03
	if (__tmp < 1.0)
    19ac:	ce 01       	movw	r24, r28
    19ae:	86 5a       	subi	r24, 0xA6	; 166
    19b0:	9f 4f       	sbci	r25, 0xFF	; 255
    19b2:	20 e0       	ldi	r18, 0x00	; 0
    19b4:	30 e0       	ldi	r19, 0x00	; 0
    19b6:	40 e8       	ldi	r20, 0x80	; 128
    19b8:	5f e3       	ldi	r21, 0x3F	; 63
    19ba:	fc 01       	movw	r30, r24
    19bc:	60 81       	ld	r22, Z
    19be:	71 81       	ldd	r23, Z+1	; 0x01
    19c0:	82 81       	ldd	r24, Z+2	; 0x02
    19c2:	93 81       	ldd	r25, Z+3	; 0x03
    19c4:	f0 d6       	rcall	.+3552   	; 0x27a6 <__cmpsf2>
    19c6:	88 23       	and	r24, r24
    19c8:	4c f4       	brge	.+18     	; 0x19dc <lcd_init+0x7f4>
		__ticks = 1;
    19ca:	ce 01       	movw	r24, r28
    19cc:	82 5a       	subi	r24, 0xA2	; 162
    19ce:	9f 4f       	sbci	r25, 0xFF	; 255
    19d0:	21 e0       	ldi	r18, 0x01	; 1
    19d2:	30 e0       	ldi	r19, 0x00	; 0
    19d4:	fc 01       	movw	r30, r24
    19d6:	31 83       	std	Z+1, r19	; 0x01
    19d8:	20 83       	st	Z, r18
    19da:	69 c0       	rjmp	.+210    	; 0x1aae <lcd_init+0x8c6>
	else if (__tmp > 65535)
    19dc:	ce 01       	movw	r24, r28
    19de:	86 5a       	subi	r24, 0xA6	; 166
    19e0:	9f 4f       	sbci	r25, 0xFF	; 255
    19e2:	20 e0       	ldi	r18, 0x00	; 0
    19e4:	3f ef       	ldi	r19, 0xFF	; 255
    19e6:	4f e7       	ldi	r20, 0x7F	; 127
    19e8:	57 e4       	ldi	r21, 0x47	; 71
    19ea:	fc 01       	movw	r30, r24
    19ec:	60 81       	ld	r22, Z
    19ee:	71 81       	ldd	r23, Z+1	; 0x01
    19f0:	82 81       	ldd	r24, Z+2	; 0x02
    19f2:	93 81       	ldd	r25, Z+3	; 0x03
    19f4:	e5 d7       	rcall	.+4042   	; 0x29c0 <__gesf2>
    19f6:	18 16       	cp	r1, r24
    19f8:	0c f0       	brlt	.+2      	; 0x19fc <lcd_init+0x814>
    19fa:	48 c0       	rjmp	.+144    	; 0x1a8c <lcd_init+0x8a4>
	{
		//	__ticks = requested delay in 1/10 ms
		__ticks = (uint16_t) (__ms * 10.0);
    19fc:	ce 01       	movw	r24, r28
    19fe:	8a 5a       	subi	r24, 0xAA	; 170
    1a00:	9f 4f       	sbci	r25, 0xFF	; 255
    1a02:	20 e0       	ldi	r18, 0x00	; 0
    1a04:	30 e0       	ldi	r19, 0x00	; 0
    1a06:	40 e2       	ldi	r20, 0x20	; 32
    1a08:	51 e4       	ldi	r21, 0x41	; 65
    1a0a:	fc 01       	movw	r30, r24
    1a0c:	60 81       	ld	r22, Z
    1a0e:	71 81       	ldd	r23, Z+1	; 0x01
    1a10:	82 81       	ldd	r24, Z+2	; 0x02
    1a12:	93 81       	ldd	r25, Z+3	; 0x03
    1a14:	d9 d7       	rcall	.+4018   	; 0x29c8 <__mulsf3>
    1a16:	dc 01       	movw	r26, r24
    1a18:	cb 01       	movw	r24, r22
    1a1a:	8e 01       	movw	r16, r28
    1a1c:	02 5a       	subi	r16, 0xA2	; 162
    1a1e:	1f 4f       	sbci	r17, 0xFF	; 255
    1a20:	bc 01       	movw	r22, r24
    1a22:	cd 01       	movw	r24, r26
    1a24:	2c d7       	rcall	.+3672   	; 0x287e <__fixunssfsi>
    1a26:	dc 01       	movw	r26, r24
    1a28:	cb 01       	movw	r24, r22
    1a2a:	f8 01       	movw	r30, r16
    1a2c:	91 83       	std	Z+1, r25	; 0x01
    1a2e:	80 83       	st	Z, r24
    1a30:	24 c0       	rjmp	.+72     	; 0x1a7a <lcd_init+0x892>
    1a32:	ce 01       	movw	r24, r28
    1a34:	80 5a       	subi	r24, 0xA0	; 160
    1a36:	9f 4f       	sbci	r25, 0xFF	; 255
    1a38:	29 e1       	ldi	r18, 0x19	; 25
    1a3a:	30 e0       	ldi	r19, 0x00	; 0
    1a3c:	fc 01       	movw	r30, r24
    1a3e:	31 83       	std	Z+1, r19	; 0x01
    1a40:	20 83       	st	Z, r18
    milliseconds can be achieved.
 */
void
_delay_loop_2(uint16_t __count)
{
	__asm__ volatile (
    1a42:	ce 01       	movw	r24, r28
    1a44:	80 5a       	subi	r24, 0xA0	; 160
    1a46:	9f 4f       	sbci	r25, 0xFF	; 255
    1a48:	fc 01       	movw	r30, r24
    1a4a:	80 81       	ld	r24, Z
    1a4c:	91 81       	ldd	r25, Z+1	; 0x01
    1a4e:	01 97       	sbiw	r24, 0x01	; 1
    1a50:	f1 f7       	brne	.-4      	; 0x1a4e <lcd_init+0x866>
    1a52:	9e 01       	movw	r18, r28
    1a54:	20 5a       	subi	r18, 0xA0	; 160
    1a56:	3f 4f       	sbci	r19, 0xFF	; 255
    1a58:	f9 01       	movw	r30, r18
    1a5a:	91 83       	std	Z+1, r25	; 0x01
    1a5c:	80 83       	st	Z, r24
		while(__ticks)
		{
			// wait 1/10 ms
			_delay_loop_2(((F_CPU) / 4e3) / 10);
			__ticks --;
    1a5e:	ce 01       	movw	r24, r28
    1a60:	82 5a       	subi	r24, 0xA2	; 162
    1a62:	9f 4f       	sbci	r25, 0xFF	; 255
    1a64:	9e 01       	movw	r18, r28
    1a66:	22 5a       	subi	r18, 0xA2	; 162
    1a68:	3f 4f       	sbci	r19, 0xFF	; 255
    1a6a:	f9 01       	movw	r30, r18
    1a6c:	20 81       	ld	r18, Z
    1a6e:	31 81       	ldd	r19, Z+1	; 0x01
    1a70:	21 50       	subi	r18, 0x01	; 1
    1a72:	31 09       	sbc	r19, r1
    1a74:	fc 01       	movw	r30, r24
    1a76:	31 83       	std	Z+1, r19	; 0x01
    1a78:	20 83       	st	Z, r18
		__ticks = 1;
	else if (__tmp > 65535)
	{
		//	__ticks = requested delay in 1/10 ms
		__ticks = (uint16_t) (__ms * 10.0);
		while(__ticks)
    1a7a:	ce 01       	movw	r24, r28
    1a7c:	82 5a       	subi	r24, 0xA2	; 162
    1a7e:	9f 4f       	sbci	r25, 0xFF	; 255
    1a80:	fc 01       	movw	r30, r24
    1a82:	80 81       	ld	r24, Z
    1a84:	91 81       	ldd	r25, Z+1	; 0x01
    1a86:	89 2b       	or	r24, r25
    1a88:	a1 f6       	brne	.-88     	; 0x1a32 <lcd_init+0x84a>
    1a8a:	77 c0       	rjmp	.+238    	; 0x1b7a <lcd_init+0x992>
			__ticks --;
		}
		return;
	}
	else
		__ticks = (uint16_t)__tmp;
    1a8c:	8e 01       	movw	r16, r28
    1a8e:	02 5a       	subi	r16, 0xA2	; 162
    1a90:	1f 4f       	sbci	r17, 0xFF	; 255
    1a92:	ce 01       	movw	r24, r28
    1a94:	86 5a       	subi	r24, 0xA6	; 166
    1a96:	9f 4f       	sbci	r25, 0xFF	; 255
    1a98:	fc 01       	movw	r30, r24
    1a9a:	60 81       	ld	r22, Z
    1a9c:	71 81       	ldd	r23, Z+1	; 0x01
    1a9e:	82 81       	ldd	r24, Z+2	; 0x02
    1aa0:	93 81       	ldd	r25, Z+3	; 0x03
    1aa2:	ed d6       	rcall	.+3546   	; 0x287e <__fixunssfsi>
    1aa4:	dc 01       	movw	r26, r24
    1aa6:	cb 01       	movw	r24, r22
    1aa8:	f8 01       	movw	r30, r16
    1aaa:	91 83       	std	Z+1, r25	; 0x01
    1aac:	80 83       	st	Z, r24
    1aae:	ce 01       	movw	r24, r28
    1ab0:	8e 59       	subi	r24, 0x9E	; 158
    1ab2:	9f 4f       	sbci	r25, 0xFF	; 255
    1ab4:	9e 01       	movw	r18, r28
    1ab6:	22 5a       	subi	r18, 0xA2	; 162
    1ab8:	3f 4f       	sbci	r19, 0xFF	; 255
    1aba:	f9 01       	movw	r30, r18
    1abc:	20 81       	ld	r18, Z
    1abe:	31 81       	ldd	r19, Z+1	; 0x01
    1ac0:	fc 01       	movw	r30, r24
    1ac2:	31 83       	std	Z+1, r19	; 0x01
    1ac4:	20 83       	st	Z, r18
    1ac6:	ce 01       	movw	r24, r28
    1ac8:	8e 59       	subi	r24, 0x9E	; 158
    1aca:	9f 4f       	sbci	r25, 0xFF	; 255
    1acc:	fc 01       	movw	r30, r24
    1ace:	80 81       	ld	r24, Z
    1ad0:	91 81       	ldd	r25, Z+1	; 0x01
    1ad2:	01 97       	sbiw	r24, 0x01	; 1
    1ad4:	f1 f7       	brne	.-4      	; 0x1ad2 <lcd_init+0x8ea>
    1ad6:	9e 01       	movw	r18, r28
    1ad8:	2e 59       	subi	r18, 0x9E	; 158
    1ada:	3f 4f       	sbci	r19, 0xFF	; 255
    1adc:	f9 01       	movw	r30, r18
    1ade:	91 83       	std	Z+1, r25	; 0x01
    1ae0:	80 83       	st	Z, r24
    1ae2:	4b c0       	rjmp	.+150    	; 0x1b7a <lcd_init+0x992>
		__ticks = 1;
	else if (__tmp2 > 65535)
	{
		_delay_ms(__us / 1000.0);
	}
	else if (__tmp > 255)
    1ae4:	ce 01       	movw	r24, r28
    1ae6:	83 5b       	subi	r24, 0xB3	; 179
    1ae8:	9f 4f       	sbci	r25, 0xFF	; 255
    1aea:	20 e0       	ldi	r18, 0x00	; 0
    1aec:	30 e0       	ldi	r19, 0x00	; 0
    1aee:	4f e7       	ldi	r20, 0x7F	; 127
    1af0:	53 e4       	ldi	r21, 0x43	; 67
    1af2:	fc 01       	movw	r30, r24
    1af4:	60 81       	ld	r22, Z
    1af6:	71 81       	ldd	r23, Z+1	; 0x01
    1af8:	82 81       	ldd	r24, Z+2	; 0x02
    1afa:	93 81       	ldd	r25, Z+3	; 0x03
    1afc:	61 d7       	rcall	.+3778   	; 0x29c0 <__gesf2>
    1afe:	18 16       	cp	r1, r24
    1b00:	64 f5       	brge	.+88     	; 0x1b5a <lcd_init+0x972>
	{
		uint16_t __ticks=(uint16_t)__tmp2;
    1b02:	8e 01       	movw	r16, r28
    1b04:	0c 59       	subi	r16, 0x9C	; 156
    1b06:	1f 4f       	sbci	r17, 0xFF	; 255
    1b08:	ce 01       	movw	r24, r28
    1b0a:	8f 5a       	subi	r24, 0xAF	; 175
    1b0c:	9f 4f       	sbci	r25, 0xFF	; 255
    1b0e:	fc 01       	movw	r30, r24
    1b10:	60 81       	ld	r22, Z
    1b12:	71 81       	ldd	r23, Z+1	; 0x01
    1b14:	82 81       	ldd	r24, Z+2	; 0x02
    1b16:	93 81       	ldd	r25, Z+3	; 0x03
    1b18:	b2 d6       	rcall	.+3428   	; 0x287e <__fixunssfsi>
    1b1a:	dc 01       	movw	r26, r24
    1b1c:	cb 01       	movw	r24, r22
    1b1e:	f8 01       	movw	r30, r16
    1b20:	91 83       	std	Z+1, r25	; 0x01
    1b22:	80 83       	st	Z, r24
    1b24:	ce 01       	movw	r24, r28
    1b26:	8a 59       	subi	r24, 0x9A	; 154
    1b28:	9f 4f       	sbci	r25, 0xFF	; 255
    1b2a:	9e 01       	movw	r18, r28
    1b2c:	2c 59       	subi	r18, 0x9C	; 156
    1b2e:	3f 4f       	sbci	r19, 0xFF	; 255
    1b30:	f9 01       	movw	r30, r18
    1b32:	20 81       	ld	r18, Z
    1b34:	31 81       	ldd	r19, Z+1	; 0x01
    1b36:	fc 01       	movw	r30, r24
    1b38:	31 83       	std	Z+1, r19	; 0x01
    1b3a:	20 83       	st	Z, r18
    1b3c:	ce 01       	movw	r24, r28
    1b3e:	8a 59       	subi	r24, 0x9A	; 154
    1b40:	9f 4f       	sbci	r25, 0xFF	; 255
    1b42:	fc 01       	movw	r30, r24
    1b44:	80 81       	ld	r24, Z
    1b46:	91 81       	ldd	r25, Z+1	; 0x01
    1b48:	01 97       	sbiw	r24, 0x01	; 1
    1b4a:	f1 f7       	brne	.-4      	; 0x1b48 <lcd_init+0x960>
    1b4c:	9e 01       	movw	r18, r28
    1b4e:	2a 59       	subi	r18, 0x9A	; 154
    1b50:	3f 4f       	sbci	r19, 0xFF	; 255
    1b52:	f9 01       	movw	r30, r18
    1b54:	91 83       	std	Z+1, r25	; 0x01
    1b56:	80 83       	st	Z, r24
    1b58:	27 c0       	rjmp	.+78     	; 0x1ba8 <lcd_init+0x9c0>
		_delay_loop_2(__ticks);
		return;
	}
	else
		__ticks = (uint8_t)__tmp;
    1b5a:	8e 01       	movw	r16, r28
    1b5c:	0b 5a       	subi	r16, 0xAB	; 171
    1b5e:	1f 4f       	sbci	r17, 0xFF	; 255
    1b60:	ce 01       	movw	r24, r28
    1b62:	83 5b       	subi	r24, 0xB3	; 179
    1b64:	9f 4f       	sbci	r25, 0xFF	; 255
    1b66:	fc 01       	movw	r30, r24
    1b68:	60 81       	ld	r22, Z
    1b6a:	71 81       	ldd	r23, Z+1	; 0x01
    1b6c:	82 81       	ldd	r24, Z+2	; 0x02
    1b6e:	93 81       	ldd	r25, Z+3	; 0x03
    1b70:	86 d6       	rcall	.+3340   	; 0x287e <__fixunssfsi>
    1b72:	dc 01       	movw	r26, r24
    1b74:	cb 01       	movw	r24, r22
    1b76:	f8 01       	movw	r30, r16
    1b78:	80 83       	st	Z, r24
    1b7a:	ce 01       	movw	r24, r28
    1b7c:	88 59       	subi	r24, 0x98	; 152
    1b7e:	9f 4f       	sbci	r25, 0xFF	; 255
    1b80:	9e 01       	movw	r18, r28
    1b82:	2b 5a       	subi	r18, 0xAB	; 171
    1b84:	3f 4f       	sbci	r19, 0xFF	; 255
    1b86:	f9 01       	movw	r30, r18
    1b88:	20 81       	ld	r18, Z
    1b8a:	fc 01       	movw	r30, r24
    1b8c:	20 83       	st	Z, r18
    can be achieved.
*/
void
_delay_loop_1(uint8_t __count)
{
	__asm__ volatile (
    1b8e:	ce 01       	movw	r24, r28
    1b90:	88 59       	subi	r24, 0x98	; 152
    1b92:	9f 4f       	sbci	r25, 0xFF	; 255
    1b94:	fc 01       	movw	r30, r24
    1b96:	80 81       	ld	r24, Z
    1b98:	28 2f       	mov	r18, r24
    1b9a:	2a 95       	dec	r18
    1b9c:	f1 f7       	brne	.-4      	; 0x1b9a <lcd_init+0x9b2>
    1b9e:	ce 01       	movw	r24, r28
    1ba0:	88 59       	subi	r24, 0x98	; 152
    1ba2:	9f 4f       	sbci	r25, 0xFF	; 255
    1ba4:	fc 01       	movw	r30, r24
    1ba6:	20 83       	st	Z, r18
    delay(LCD_DELAY_INIT_REP);           /* delay, busy flag can't be checked here */
    
    /* repeat last command a third time */
    lcd_e_toggle();      
    1ba8:	0e 94 ea 01 	call	0x3d4	; 0x3d4 <toggle_e>
    1bac:	80 e0       	ldi	r24, 0x00	; 0
    1bae:	90 e0       	ldi	r25, 0x00	; 0
    1bb0:	a0 e8       	ldi	r26, 0x80	; 128
    1bb2:	b2 e4       	ldi	r27, 0x42	; 66
    1bb4:	8d 87       	std	Y+13, r24	; 0x0d
    1bb6:	9e 87       	std	Y+14, r25	; 0x0e
    1bb8:	af 87       	std	Y+15, r26	; 0x0f
    1bba:	b8 8b       	std	Y+16, r27	; 0x10
	__builtin_avr_delay_cycles(__ticks_dc);

#else
	uint8_t __ticks;
	double __tmp2 ;
	__tmp = ((F_CPU) / 3e6) * __us;
    1bbc:	2b ea       	ldi	r18, 0xAB	; 171
    1bbe:	3a ea       	ldi	r19, 0xAA	; 170
    1bc0:	4a ea       	ldi	r20, 0xAA	; 170
    1bc2:	5e e3       	ldi	r21, 0x3E	; 62
    1bc4:	6d 85       	ldd	r22, Y+13	; 0x0d
    1bc6:	7e 85       	ldd	r23, Y+14	; 0x0e
    1bc8:	8f 85       	ldd	r24, Y+15	; 0x0f
    1bca:	98 89       	ldd	r25, Y+16	; 0x10
    1bcc:	fd d6       	rcall	.+3578   	; 0x29c8 <__mulsf3>
    1bce:	dc 01       	movw	r26, r24
    1bd0:	cb 01       	movw	r24, r22
    1bd2:	89 ab       	std	Y+49, r24	; 0x31
    1bd4:	9a ab       	std	Y+50, r25	; 0x32
    1bd6:	ab ab       	std	Y+51, r26	; 0x33
    1bd8:	bc ab       	std	Y+52, r27	; 0x34
	__tmp2 = ((F_CPU) / 4e6) * __us;
    1bda:	20 e0       	ldi	r18, 0x00	; 0
    1bdc:	30 e0       	ldi	r19, 0x00	; 0
    1bde:	40 e8       	ldi	r20, 0x80	; 128
    1be0:	5e e3       	ldi	r21, 0x3E	; 62
    1be2:	6d 85       	ldd	r22, Y+13	; 0x0d
    1be4:	7e 85       	ldd	r23, Y+14	; 0x0e
    1be6:	8f 85       	ldd	r24, Y+15	; 0x0f
    1be8:	98 89       	ldd	r25, Y+16	; 0x10
    1bea:	ee d6       	rcall	.+3548   	; 0x29c8 <__mulsf3>
    1bec:	dc 01       	movw	r26, r24
    1bee:	cb 01       	movw	r24, r22
    1bf0:	8d ab       	std	Y+53, r24	; 0x35
    1bf2:	9e ab       	std	Y+54, r25	; 0x36
    1bf4:	af ab       	std	Y+55, r26	; 0x37
    1bf6:	b8 af       	std	Y+56, r27	; 0x38
	if (__tmp < 1.0)
    1bf8:	20 e0       	ldi	r18, 0x00	; 0
    1bfa:	30 e0       	ldi	r19, 0x00	; 0
    1bfc:	40 e8       	ldi	r20, 0x80	; 128
    1bfe:	5f e3       	ldi	r21, 0x3F	; 63
    1c00:	69 a9       	ldd	r22, Y+49	; 0x31
    1c02:	7a a9       	ldd	r23, Y+50	; 0x32
    1c04:	8b a9       	ldd	r24, Y+51	; 0x33
    1c06:	9c a9       	ldd	r25, Y+52	; 0x34
    1c08:	ce d5       	rcall	.+2972   	; 0x27a6 <__cmpsf2>
    1c0a:	88 23       	and	r24, r24
    1c0c:	1c f4       	brge	.+6      	; 0x1c14 <lcd_init+0xa2c>
    1c0e:	81 e0       	ldi	r24, 0x01	; 1
		__ticks = 1;
    1c10:	89 af       	std	Y+57, r24	; 0x39
    1c12:	fe c0       	rjmp	.+508    	; 0x1e10 <lcd_init+0xc28>
	else if (__tmp2 > 65535)
    1c14:	20 e0       	ldi	r18, 0x00	; 0
    1c16:	3f ef       	ldi	r19, 0xFF	; 255
    1c18:	4f e7       	ldi	r20, 0x7F	; 127
    1c1a:	57 e4       	ldi	r21, 0x47	; 71
    1c1c:	6d a9       	ldd	r22, Y+53	; 0x35
    1c1e:	7e a9       	ldd	r23, Y+54	; 0x36
    1c20:	8f a9       	ldd	r24, Y+55	; 0x37
    1c22:	98 ad       	ldd	r25, Y+56	; 0x38
    1c24:	cd d6       	rcall	.+3482   	; 0x29c0 <__gesf2>
    1c26:	18 16       	cp	r1, r24
    1c28:	0c f0       	brlt	.+2      	; 0x1c2c <lcd_init+0xa44>
    1c2a:	b7 c0       	rjmp	.+366    	; 0x1d9a <lcd_init+0xbb2>
	{
		_delay_ms(__us / 1000.0);
    1c2c:	20 e0       	ldi	r18, 0x00	; 0
    1c2e:	30 e0       	ldi	r19, 0x00	; 0
    1c30:	4a e7       	ldi	r20, 0x7A	; 122
    1c32:	54 e4       	ldi	r21, 0x44	; 68
    1c34:	6d 85       	ldd	r22, Y+13	; 0x0d
    1c36:	7e 85       	ldd	r23, Y+14	; 0x0e
    1c38:	8f 85       	ldd	r24, Y+15	; 0x0f
    1c3a:	98 89       	ldd	r25, Y+16	; 0x10
    1c3c:	b8 d5       	rcall	.+2928   	; 0x27ae <__divsf3>
    1c3e:	dc 01       	movw	r26, r24
    1c40:	cb 01       	movw	r24, r22
    1c42:	8a af       	std	Y+58, r24	; 0x3a
    1c44:	9b af       	std	Y+59, r25	; 0x3b
    1c46:	ac af       	std	Y+60, r26	; 0x3c
    1c48:	bd af       	std	Y+61, r27	; 0x3d

	__builtin_avr_delay_cycles(__ticks_dc);

#else
	uint16_t __ticks;
	__tmp = ((F_CPU) / 4e3) * __ms;
    1c4a:	8e 01       	movw	r16, r28
    1c4c:	02 5c       	subi	r16, 0xC2	; 194
    1c4e:	1f 4f       	sbci	r17, 0xFF	; 255
    1c50:	20 e0       	ldi	r18, 0x00	; 0
    1c52:	30 e0       	ldi	r19, 0x00	; 0
    1c54:	4a e7       	ldi	r20, 0x7A	; 122
    1c56:	53 e4       	ldi	r21, 0x43	; 67
    1c58:	6a ad       	ldd	r22, Y+58	; 0x3a
    1c5a:	7b ad       	ldd	r23, Y+59	; 0x3b
    1c5c:	8c ad       	ldd	r24, Y+60	; 0x3c
    1c5e:	9d ad       	ldd	r25, Y+61	; 0x3d
    1c60:	b3 d6       	rcall	.+3430   	; 0x29c8 <__mulsf3>
    1c62:	dc 01       	movw	r26, r24
    1c64:	cb 01       	movw	r24, r22
    1c66:	f8 01       	movw	r30, r16
    1c68:	80 83       	st	Z, r24
    1c6a:	91 83       	std	Z+1, r25	; 0x01
    1c6c:	a2 83       	std	Z+2, r26	; 0x02
    1c6e:	b3 83       	std	Z+3, r27	; 0x03
	if (__tmp < 1.0)
    1c70:	ce 01       	movw	r24, r28
    1c72:	ce 96       	adiw	r24, 0x3e	; 62
    1c74:	20 e0       	ldi	r18, 0x00	; 0
    1c76:	30 e0       	ldi	r19, 0x00	; 0
    1c78:	40 e8       	ldi	r20, 0x80	; 128
    1c7a:	5f e3       	ldi	r21, 0x3F	; 63
    1c7c:	fc 01       	movw	r30, r24
    1c7e:	60 81       	ld	r22, Z
    1c80:	71 81       	ldd	r23, Z+1	; 0x01
    1c82:	82 81       	ldd	r24, Z+2	; 0x02
    1c84:	93 81       	ldd	r25, Z+3	; 0x03
    1c86:	8f d5       	rcall	.+2846   	; 0x27a6 <__cmpsf2>
    1c88:	88 23       	and	r24, r24
    1c8a:	4c f4       	brge	.+18     	; 0x1c9e <lcd_init+0xab6>
    1c8c:	ce 01       	movw	r24, r28
		__ticks = 1;
    1c8e:	8e 5b       	subi	r24, 0xBE	; 190
    1c90:	9f 4f       	sbci	r25, 0xFF	; 255
    1c92:	21 e0       	ldi	r18, 0x01	; 1
    1c94:	30 e0       	ldi	r19, 0x00	; 0
    1c96:	fc 01       	movw	r30, r24
    1c98:	31 83       	std	Z+1, r19	; 0x01
    1c9a:	20 83       	st	Z, r18
    1c9c:	63 c0       	rjmp	.+198    	; 0x1d64 <lcd_init+0xb7c>
	else if (__tmp > 65535)
    1c9e:	ce 01       	movw	r24, r28
    1ca0:	ce 96       	adiw	r24, 0x3e	; 62
    1ca2:	20 e0       	ldi	r18, 0x00	; 0
    1ca4:	3f ef       	ldi	r19, 0xFF	; 255
    1ca6:	4f e7       	ldi	r20, 0x7F	; 127
    1ca8:	57 e4       	ldi	r21, 0x47	; 71
    1caa:	fc 01       	movw	r30, r24
    1cac:	60 81       	ld	r22, Z
    1cae:	71 81       	ldd	r23, Z+1	; 0x01
    1cb0:	82 81       	ldd	r24, Z+2	; 0x02
    1cb2:	93 81       	ldd	r25, Z+3	; 0x03
    1cb4:	85 d6       	rcall	.+3338   	; 0x29c0 <__gesf2>
    1cb6:	18 16       	cp	r1, r24
    1cb8:	0c f0       	brlt	.+2      	; 0x1cbc <lcd_init+0xad4>
    1cba:	44 c0       	rjmp	.+136    	; 0x1d44 <lcd_init+0xb5c>
	{
		//	__ticks = requested delay in 1/10 ms
		__ticks = (uint16_t) (__ms * 10.0);
    1cbc:	20 e0       	ldi	r18, 0x00	; 0
    1cbe:	30 e0       	ldi	r19, 0x00	; 0
    1cc0:	40 e2       	ldi	r20, 0x20	; 32
    1cc2:	51 e4       	ldi	r21, 0x41	; 65
    1cc4:	6a ad       	ldd	r22, Y+58	; 0x3a
    1cc6:	7b ad       	ldd	r23, Y+59	; 0x3b
    1cc8:	8c ad       	ldd	r24, Y+60	; 0x3c
    1cca:	9d ad       	ldd	r25, Y+61	; 0x3d
    1ccc:	7d d6       	rcall	.+3322   	; 0x29c8 <__mulsf3>
    1cce:	dc 01       	movw	r26, r24
    1cd0:	cb 01       	movw	r24, r22
    1cd2:	8e 01       	movw	r16, r28
    1cd4:	0e 5b       	subi	r16, 0xBE	; 190
    1cd6:	1f 4f       	sbci	r17, 0xFF	; 255
    1cd8:	bc 01       	movw	r22, r24
    1cda:	cd 01       	movw	r24, r26
    1cdc:	d0 d5       	rcall	.+2976   	; 0x287e <__fixunssfsi>
    1cde:	dc 01       	movw	r26, r24
    1ce0:	cb 01       	movw	r24, r22
    1ce2:	f8 01       	movw	r30, r16
    1ce4:	91 83       	std	Z+1, r25	; 0x01
    1ce6:	80 83       	st	Z, r24
    1ce8:	24 c0       	rjmp	.+72     	; 0x1d32 <lcd_init+0xb4a>
    1cea:	ce 01       	movw	r24, r28
    1cec:	8c 5b       	subi	r24, 0xBC	; 188
    1cee:	9f 4f       	sbci	r25, 0xFF	; 255
    1cf0:	29 e1       	ldi	r18, 0x19	; 25
    1cf2:	30 e0       	ldi	r19, 0x00	; 0
    1cf4:	fc 01       	movw	r30, r24
    1cf6:	31 83       	std	Z+1, r19	; 0x01
    1cf8:	20 83       	st	Z, r18
    1cfa:	ce 01       	movw	r24, r28
    milliseconds can be achieved.
 */
void
_delay_loop_2(uint16_t __count)
{
	__asm__ volatile (
    1cfc:	8c 5b       	subi	r24, 0xBC	; 188
    1cfe:	9f 4f       	sbci	r25, 0xFF	; 255
    1d00:	fc 01       	movw	r30, r24
    1d02:	80 81       	ld	r24, Z
    1d04:	91 81       	ldd	r25, Z+1	; 0x01
    1d06:	01 97       	sbiw	r24, 0x01	; 1
    1d08:	f1 f7       	brne	.-4      	; 0x1d06 <lcd_init+0xb1e>
    1d0a:	9e 01       	movw	r18, r28
    1d0c:	2c 5b       	subi	r18, 0xBC	; 188
    1d0e:	3f 4f       	sbci	r19, 0xFF	; 255
    1d10:	f9 01       	movw	r30, r18
    1d12:	91 83       	std	Z+1, r25	; 0x01
    1d14:	80 83       	st	Z, r24
    1d16:	ce 01       	movw	r24, r28
		while(__ticks)
		{
			// wait 1/10 ms
			_delay_loop_2(((F_CPU) / 4e3) / 10);
			__ticks --;
    1d18:	8e 5b       	subi	r24, 0xBE	; 190
    1d1a:	9f 4f       	sbci	r25, 0xFF	; 255
    1d1c:	9e 01       	movw	r18, r28
    1d1e:	2e 5b       	subi	r18, 0xBE	; 190
    1d20:	3f 4f       	sbci	r19, 0xFF	; 255
    1d22:	f9 01       	movw	r30, r18
    1d24:	20 81       	ld	r18, Z
    1d26:	31 81       	ldd	r19, Z+1	; 0x01
    1d28:	21 50       	subi	r18, 0x01	; 1
    1d2a:	31 09       	sbc	r19, r1
    1d2c:	fc 01       	movw	r30, r24
    1d2e:	31 83       	std	Z+1, r19	; 0x01
    1d30:	20 83       	st	Z, r18
    1d32:	ce 01       	movw	r24, r28
		__ticks = 1;
	else if (__tmp > 65535)
	{
		//	__ticks = requested delay in 1/10 ms
		__ticks = (uint16_t) (__ms * 10.0);
		while(__ticks)
    1d34:	8e 5b       	subi	r24, 0xBE	; 190
    1d36:	9f 4f       	sbci	r25, 0xFF	; 255
    1d38:	fc 01       	movw	r30, r24
    1d3a:	80 81       	ld	r24, Z
    1d3c:	91 81       	ldd	r25, Z+1	; 0x01
    1d3e:	89 2b       	or	r24, r25
    1d40:	a1 f6       	brne	.-88     	; 0x1cea <lcd_init+0xb02>
    1d42:	66 c0       	rjmp	.+204    	; 0x1e10 <lcd_init+0xc28>
			__ticks --;
		}
		return;
	}
	else
		__ticks = (uint16_t)__tmp;
    1d44:	8e 01       	movw	r16, r28
    1d46:	0e 5b       	subi	r16, 0xBE	; 190
    1d48:	1f 4f       	sbci	r17, 0xFF	; 255
    1d4a:	ce 01       	movw	r24, r28
    1d4c:	ce 96       	adiw	r24, 0x3e	; 62
    1d4e:	fc 01       	movw	r30, r24
    1d50:	60 81       	ld	r22, Z
    1d52:	71 81       	ldd	r23, Z+1	; 0x01
    1d54:	82 81       	ldd	r24, Z+2	; 0x02
    1d56:	93 81       	ldd	r25, Z+3	; 0x03
    1d58:	92 d5       	rcall	.+2852   	; 0x287e <__fixunssfsi>
    1d5a:	dc 01       	movw	r26, r24
    1d5c:	cb 01       	movw	r24, r22
    1d5e:	f8 01       	movw	r30, r16
    1d60:	91 83       	std	Z+1, r25	; 0x01
    1d62:	80 83       	st	Z, r24
    1d64:	ce 01       	movw	r24, r28
    1d66:	8a 5b       	subi	r24, 0xBA	; 186
    1d68:	9f 4f       	sbci	r25, 0xFF	; 255
    1d6a:	9e 01       	movw	r18, r28
    1d6c:	2e 5b       	subi	r18, 0xBE	; 190
    1d6e:	3f 4f       	sbci	r19, 0xFF	; 255
    1d70:	f9 01       	movw	r30, r18
    1d72:	20 81       	ld	r18, Z
    1d74:	31 81       	ldd	r19, Z+1	; 0x01
    1d76:	fc 01       	movw	r30, r24
    1d78:	31 83       	std	Z+1, r19	; 0x01
    1d7a:	20 83       	st	Z, r18
    1d7c:	ce 01       	movw	r24, r28
    1d7e:	8a 5b       	subi	r24, 0xBA	; 186
    1d80:	9f 4f       	sbci	r25, 0xFF	; 255
    1d82:	fc 01       	movw	r30, r24
    1d84:	80 81       	ld	r24, Z
    1d86:	91 81       	ldd	r25, Z+1	; 0x01
    1d88:	01 97       	sbiw	r24, 0x01	; 1
    1d8a:	f1 f7       	brne	.-4      	; 0x1d88 <lcd_init+0xba0>
    1d8c:	9e 01       	movw	r18, r28
    1d8e:	2a 5b       	subi	r18, 0xBA	; 186
    1d90:	3f 4f       	sbci	r19, 0xFF	; 255
    1d92:	f9 01       	movw	r30, r18
    1d94:	91 83       	std	Z+1, r25	; 0x01
    1d96:	80 83       	st	Z, r24
    1d98:	3b c0       	rjmp	.+118    	; 0x1e10 <lcd_init+0xc28>
		__ticks = 1;
	else if (__tmp2 > 65535)
	{
		_delay_ms(__us / 1000.0);
	}
	else if (__tmp > 255)
    1d9a:	20 e0       	ldi	r18, 0x00	; 0
    1d9c:	30 e0       	ldi	r19, 0x00	; 0
    1d9e:	4f e7       	ldi	r20, 0x7F	; 127
    1da0:	53 e4       	ldi	r21, 0x43	; 67
    1da2:	69 a9       	ldd	r22, Y+49	; 0x31
    1da4:	7a a9       	ldd	r23, Y+50	; 0x32
    1da6:	8b a9       	ldd	r24, Y+51	; 0x33
    1da8:	9c a9       	ldd	r25, Y+52	; 0x34
    1daa:	0a d6       	rcall	.+3092   	; 0x29c0 <__gesf2>
    1dac:	18 16       	cp	r1, r24
    1dae:	44 f5       	brge	.+80     	; 0x1e00 <lcd_init+0xc18>
    1db0:	8e 01       	movw	r16, r28
	{
		uint16_t __ticks=(uint16_t)__tmp2;
    1db2:	08 5b       	subi	r16, 0xB8	; 184
    1db4:	1f 4f       	sbci	r17, 0xFF	; 255
    1db6:	6d a9       	ldd	r22, Y+53	; 0x35
    1db8:	7e a9       	ldd	r23, Y+54	; 0x36
    1dba:	8f a9       	ldd	r24, Y+55	; 0x37
    1dbc:	98 ad       	ldd	r25, Y+56	; 0x38
    1dbe:	5f d5       	rcall	.+2750   	; 0x287e <__fixunssfsi>
    1dc0:	dc 01       	movw	r26, r24
    1dc2:	cb 01       	movw	r24, r22
    1dc4:	f8 01       	movw	r30, r16
    1dc6:	91 83       	std	Z+1, r25	; 0x01
    1dc8:	80 83       	st	Z, r24
    1dca:	ce 01       	movw	r24, r28
    1dcc:	86 5b       	subi	r24, 0xB6	; 182
    1dce:	9f 4f       	sbci	r25, 0xFF	; 255
    1dd0:	9e 01       	movw	r18, r28
    1dd2:	28 5b       	subi	r18, 0xB8	; 184
    1dd4:	3f 4f       	sbci	r19, 0xFF	; 255
    1dd6:	f9 01       	movw	r30, r18
    1dd8:	20 81       	ld	r18, Z
    1dda:	31 81       	ldd	r19, Z+1	; 0x01
    1ddc:	fc 01       	movw	r30, r24
    1dde:	31 83       	std	Z+1, r19	; 0x01
    1de0:	20 83       	st	Z, r18
    1de2:	ce 01       	movw	r24, r28
    1de4:	86 5b       	subi	r24, 0xB6	; 182
    1de6:	9f 4f       	sbci	r25, 0xFF	; 255
    1de8:	fc 01       	movw	r30, r24
    1dea:	80 81       	ld	r24, Z
    1dec:	91 81       	ldd	r25, Z+1	; 0x01
    1dee:	01 97       	sbiw	r24, 0x01	; 1
    1df0:	f1 f7       	brne	.-4      	; 0x1dee <lcd_init+0xc06>
    1df2:	9e 01       	movw	r18, r28
    1df4:	26 5b       	subi	r18, 0xB6	; 182
    1df6:	3f 4f       	sbci	r19, 0xFF	; 255
    1df8:	f9 01       	movw	r30, r18
    1dfa:	91 83       	std	Z+1, r25	; 0x01
    1dfc:	80 83       	st	Z, r24
    1dfe:	1b c0       	rjmp	.+54     	; 0x1e36 <lcd_init+0xc4e>
    1e00:	69 a9       	ldd	r22, Y+49	; 0x31
		_delay_loop_2(__ticks);
		return;
	}
	else
		__ticks = (uint8_t)__tmp;
    1e02:	7a a9       	ldd	r23, Y+50	; 0x32
    1e04:	8b a9       	ldd	r24, Y+51	; 0x33
    1e06:	9c a9       	ldd	r25, Y+52	; 0x34
    1e08:	3a d5       	rcall	.+2676   	; 0x287e <__fixunssfsi>
    1e0a:	dc 01       	movw	r26, r24
    1e0c:	cb 01       	movw	r24, r22
    1e0e:	89 af       	std	Y+57, r24	; 0x39
    1e10:	ce 01       	movw	r24, r28
    1e12:	84 5b       	subi	r24, 0xB4	; 180
    1e14:	9f 4f       	sbci	r25, 0xFF	; 255
    1e16:	29 ad       	ldd	r18, Y+57	; 0x39
    1e18:	fc 01       	movw	r30, r24
    1e1a:	20 83       	st	Z, r18
    1e1c:	ce 01       	movw	r24, r28
    1e1e:	84 5b       	subi	r24, 0xB4	; 180
    can be achieved.
*/
void
_delay_loop_1(uint8_t __count)
{
	__asm__ volatile (
    1e20:	9f 4f       	sbci	r25, 0xFF	; 255
    1e22:	fc 01       	movw	r30, r24
    1e24:	80 81       	ld	r24, Z
    1e26:	28 2f       	mov	r18, r24
    1e28:	2a 95       	dec	r18
    1e2a:	f1 f7       	brne	.-4      	; 0x1e28 <lcd_init+0xc40>
    1e2c:	ce 01       	movw	r24, r28
    1e2e:	84 5b       	subi	r24, 0xB4	; 180
    1e30:	9f 4f       	sbci	r25, 0xFF	; 255
    1e32:	fc 01       	movw	r30, r24
    1e34:	20 83       	st	Z, r18
    1e36:	82 e2       	ldi	r24, 0x22	; 34
    1e38:	90 e0       	ldi	r25, 0x00	; 0
    delay(LCD_DELAY_INIT_REP);           /* delay, busy flag can't be checked here */

    /* now configure for 4bit mode */
    LCD_DATA0_PORT &= ~_BV(LCD_DATA0_PIN);   // LCD_FUNCTION_4BIT_1LINE>>4
    1e3a:	22 e2       	ldi	r18, 0x22	; 34
    1e3c:	30 e0       	ldi	r19, 0x00	; 0
    1e3e:	f9 01       	movw	r30, r18
    1e40:	20 81       	ld	r18, Z
    1e42:	2e 7f       	andi	r18, 0xFE	; 254
    1e44:	fc 01       	movw	r30, r24
    1e46:	20 83       	st	Z, r18
    1e48:	0e 94 ea 01 	call	0x3d4	; 0x3d4 <toggle_e>
    lcd_e_toggle();
    1e4c:	80 e0       	ldi	r24, 0x00	; 0
    1e4e:	90 e0       	ldi	r25, 0x00	; 0
    1e50:	a0 e8       	ldi	r26, 0x80	; 128
    1e52:	b2 e4       	ldi	r27, 0x42	; 66
    1e54:	89 8b       	std	Y+17, r24	; 0x11
    1e56:	9a 8b       	std	Y+18, r25	; 0x12
    1e58:	ab 8b       	std	Y+19, r26	; 0x13
    1e5a:	bc 8b       	std	Y+20, r27	; 0x14
    1e5c:	2b ea       	ldi	r18, 0xAB	; 171
	__builtin_avr_delay_cycles(__ticks_dc);

#else
	uint8_t __ticks;
	double __tmp2 ;
	__tmp = ((F_CPU) / 3e6) * __us;
    1e5e:	3a ea       	ldi	r19, 0xAA	; 170
    1e60:	4a ea       	ldi	r20, 0xAA	; 170
    1e62:	5e e3       	ldi	r21, 0x3E	; 62
    1e64:	69 89       	ldd	r22, Y+17	; 0x11
    1e66:	7a 89       	ldd	r23, Y+18	; 0x12
    1e68:	8b 89       	ldd	r24, Y+19	; 0x13
    1e6a:	9c 89       	ldd	r25, Y+20	; 0x14
    1e6c:	ad d5       	rcall	.+2906   	; 0x29c8 <__mulsf3>
    1e6e:	dc 01       	movw	r26, r24
    1e70:	cb 01       	movw	r24, r22
    1e72:	8d 8b       	std	Y+21, r24	; 0x15
    1e74:	9e 8b       	std	Y+22, r25	; 0x16
    1e76:	af 8b       	std	Y+23, r26	; 0x17
    1e78:	b8 8f       	std	Y+24, r27	; 0x18
    1e7a:	20 e0       	ldi	r18, 0x00	; 0
	__tmp2 = ((F_CPU) / 4e6) * __us;
    1e7c:	30 e0       	ldi	r19, 0x00	; 0
    1e7e:	40 e8       	ldi	r20, 0x80	; 128
    1e80:	5e e3       	ldi	r21, 0x3E	; 62
    1e82:	69 89       	ldd	r22, Y+17	; 0x11
    1e84:	7a 89       	ldd	r23, Y+18	; 0x12
    1e86:	8b 89       	ldd	r24, Y+19	; 0x13
    1e88:	9c 89       	ldd	r25, Y+20	; 0x14
    1e8a:	9e d5       	rcall	.+2876   	; 0x29c8 <__mulsf3>
    1e8c:	dc 01       	movw	r26, r24
    1e8e:	cb 01       	movw	r24, r22
    1e90:	89 8f       	std	Y+25, r24	; 0x19
    1e92:	9a 8f       	std	Y+26, r25	; 0x1a
    1e94:	ab 8f       	std	Y+27, r26	; 0x1b
    1e96:	bc 8f       	std	Y+28, r27	; 0x1c
	if (__tmp < 1.0)
    1e98:	20 e0       	ldi	r18, 0x00	; 0
    1e9a:	30 e0       	ldi	r19, 0x00	; 0
    1e9c:	40 e8       	ldi	r20, 0x80	; 128
    1e9e:	5f e3       	ldi	r21, 0x3F	; 63
    1ea0:	6d 89       	ldd	r22, Y+21	; 0x15
    1ea2:	7e 89       	ldd	r23, Y+22	; 0x16
    1ea4:	8f 89       	ldd	r24, Y+23	; 0x17
    1ea6:	98 8d       	ldd	r25, Y+24	; 0x18
    1ea8:	7e d4       	rcall	.+2300   	; 0x27a6 <__cmpsf2>
    1eaa:	88 23       	and	r24, r24
    1eac:	1c f4       	brge	.+6      	; 0x1eb4 <lcd_init+0xccc>
		__ticks = 1;
    1eae:	81 e0       	ldi	r24, 0x01	; 1
    1eb0:	8d 8f       	std	Y+29, r24	; 0x1d
    1eb2:	a7 c0       	rjmp	.+334    	; 0x2002 <__DATA_REGION_LENGTH__+0x2>
	else if (__tmp2 > 65535)
    1eb4:	20 e0       	ldi	r18, 0x00	; 0
    1eb6:	3f ef       	ldi	r19, 0xFF	; 255
    1eb8:	4f e7       	ldi	r20, 0x7F	; 127
    1eba:	57 e4       	ldi	r21, 0x47	; 71
    1ebc:	69 8d       	ldd	r22, Y+25	; 0x19
    1ebe:	7a 8d       	ldd	r23, Y+26	; 0x1a
    1ec0:	8b 8d       	ldd	r24, Y+27	; 0x1b
    1ec2:	9c 8d       	ldd	r25, Y+28	; 0x1c
    1ec4:	7d d5       	rcall	.+2810   	; 0x29c0 <__gesf2>
    1ec6:	18 16       	cp	r1, r24
    1ec8:	0c f0       	brlt	.+2      	; 0x1ecc <lcd_init+0xce4>
    1eca:	74 c0       	rjmp	.+232    	; 0x1fb4 <lcd_init+0xdcc>
	{
		_delay_ms(__us / 1000.0);
    1ecc:	20 e0       	ldi	r18, 0x00	; 0
    1ece:	30 e0       	ldi	r19, 0x00	; 0
    1ed0:	4a e7       	ldi	r20, 0x7A	; 122
    1ed2:	54 e4       	ldi	r21, 0x44	; 68
    1ed4:	69 89       	ldd	r22, Y+17	; 0x11
    1ed6:	7a 89       	ldd	r23, Y+18	; 0x12
    1ed8:	8b 89       	ldd	r24, Y+19	; 0x13
    1eda:	9c 89       	ldd	r25, Y+20	; 0x14
    1edc:	68 d4       	rcall	.+2256   	; 0x27ae <__divsf3>
    1ede:	dc 01       	movw	r26, r24
    1ee0:	cb 01       	movw	r24, r22
    1ee2:	8e 8f       	std	Y+30, r24	; 0x1e
    1ee4:	9f 8f       	std	Y+31, r25	; 0x1f
    1ee6:	a8 a3       	std	Y+32, r26	; 0x20
    1ee8:	b9 a3       	std	Y+33, r27	; 0x21

	__builtin_avr_delay_cycles(__ticks_dc);

#else
	uint16_t __ticks;
	__tmp = ((F_CPU) / 4e3) * __ms;
    1eea:	20 e0       	ldi	r18, 0x00	; 0
    1eec:	30 e0       	ldi	r19, 0x00	; 0
    1eee:	4a e7       	ldi	r20, 0x7A	; 122
    1ef0:	53 e4       	ldi	r21, 0x43	; 67
    1ef2:	6e 8d       	ldd	r22, Y+30	; 0x1e
    1ef4:	7f 8d       	ldd	r23, Y+31	; 0x1f
    1ef6:	88 a1       	ldd	r24, Y+32	; 0x20
    1ef8:	99 a1       	ldd	r25, Y+33	; 0x21
    1efa:	66 d5       	rcall	.+2764   	; 0x29c8 <__mulsf3>
    1efc:	dc 01       	movw	r26, r24
    1efe:	cb 01       	movw	r24, r22
    1f00:	8a a3       	std	Y+34, r24	; 0x22
    1f02:	9b a3       	std	Y+35, r25	; 0x23
    1f04:	ac a3       	std	Y+36, r26	; 0x24
    1f06:	bd a3       	std	Y+37, r27	; 0x25
	if (__tmp < 1.0)
    1f08:	20 e0       	ldi	r18, 0x00	; 0
    1f0a:	30 e0       	ldi	r19, 0x00	; 0
    1f0c:	40 e8       	ldi	r20, 0x80	; 128
    1f0e:	5f e3       	ldi	r21, 0x3F	; 63
    1f10:	6a a1       	ldd	r22, Y+34	; 0x22
    1f12:	7b a1       	ldd	r23, Y+35	; 0x23
    1f14:	8c a1       	ldd	r24, Y+36	; 0x24
    1f16:	9d a1       	ldd	r25, Y+37	; 0x25
    1f18:	46 d4       	rcall	.+2188   	; 0x27a6 <__cmpsf2>
    1f1a:	88 23       	and	r24, r24
    1f1c:	2c f4       	brge	.+10     	; 0x1f28 <lcd_init+0xd40>
		__ticks = 1;
    1f1e:	81 e0       	ldi	r24, 0x01	; 1
    1f20:	90 e0       	ldi	r25, 0x00	; 0
    1f22:	9f a3       	std	Y+39, r25	; 0x27
    1f24:	8e a3       	std	Y+38, r24	; 0x26
	else if (__tmp > 65535)
    1f26:	3b c0       	rjmp	.+118    	; 0x1f9e <lcd_init+0xdb6>
    1f28:	20 e0       	ldi	r18, 0x00	; 0
    1f2a:	3f ef       	ldi	r19, 0xFF	; 255
    1f2c:	4f e7       	ldi	r20, 0x7F	; 127
    1f2e:	57 e4       	ldi	r21, 0x47	; 71
    1f30:	6a a1       	ldd	r22, Y+34	; 0x22
    1f32:	7b a1       	ldd	r23, Y+35	; 0x23
    1f34:	8c a1       	ldd	r24, Y+36	; 0x24
    1f36:	9d a1       	ldd	r25, Y+37	; 0x25
    1f38:	43 d5       	rcall	.+2694   	; 0x29c0 <__gesf2>
    1f3a:	18 16       	cp	r1, r24
    1f3c:	3c f5       	brge	.+78     	; 0x1f8c <lcd_init+0xda4>
	{
		//	__ticks = requested delay in 1/10 ms
		__ticks = (uint16_t) (__ms * 10.0);
    1f3e:	20 e0       	ldi	r18, 0x00	; 0
    1f40:	30 e0       	ldi	r19, 0x00	; 0
    1f42:	40 e2       	ldi	r20, 0x20	; 32
    1f44:	51 e4       	ldi	r21, 0x41	; 65
    1f46:	6e 8d       	ldd	r22, Y+30	; 0x1e
    1f48:	7f 8d       	ldd	r23, Y+31	; 0x1f
    1f4a:	88 a1       	ldd	r24, Y+32	; 0x20
    1f4c:	99 a1       	ldd	r25, Y+33	; 0x21
    1f4e:	3c d5       	rcall	.+2680   	; 0x29c8 <__mulsf3>
    1f50:	dc 01       	movw	r26, r24
    1f52:	cb 01       	movw	r24, r22
    1f54:	bc 01       	movw	r22, r24
    1f56:	cd 01       	movw	r24, r26
    1f58:	92 d4       	rcall	.+2340   	; 0x287e <__fixunssfsi>
    1f5a:	dc 01       	movw	r26, r24
    1f5c:	cb 01       	movw	r24, r22
    1f5e:	9f a3       	std	Y+39, r25	; 0x27
    1f60:	8e a3       	std	Y+38, r24	; 0x26
    1f62:	0f c0       	rjmp	.+30     	; 0x1f82 <lcd_init+0xd9a>
    1f64:	89 e1       	ldi	r24, 0x19	; 25
    1f66:	90 e0       	ldi	r25, 0x00	; 0
    1f68:	99 a7       	std	Y+41, r25	; 0x29
    1f6a:	88 a7       	std	Y+40, r24	; 0x28
    1f6c:	88 a5       	ldd	r24, Y+40	; 0x28
    milliseconds can be achieved.
 */
void
_delay_loop_2(uint16_t __count)
{
	__asm__ volatile (
    1f6e:	99 a5       	ldd	r25, Y+41	; 0x29
    1f70:	01 97       	sbiw	r24, 0x01	; 1
    1f72:	f1 f7       	brne	.-4      	; 0x1f70 <lcd_init+0xd88>
    1f74:	99 a7       	std	Y+41, r25	; 0x29
    1f76:	88 a7       	std	Y+40, r24	; 0x28
    1f78:	8e a1       	ldd	r24, Y+38	; 0x26
		while(__ticks)
		{
			// wait 1/10 ms
			_delay_loop_2(((F_CPU) / 4e3) / 10);
			__ticks --;
    1f7a:	9f a1       	ldd	r25, Y+39	; 0x27
    1f7c:	01 97       	sbiw	r24, 0x01	; 1
    1f7e:	9f a3       	std	Y+39, r25	; 0x27
    1f80:	8e a3       	std	Y+38, r24	; 0x26
    1f82:	8e a1       	ldd	r24, Y+38	; 0x26
		__ticks = 1;
	else if (__tmp > 65535)
	{
		//	__ticks = requested delay in 1/10 ms
		__ticks = (uint16_t) (__ms * 10.0);
		while(__ticks)
    1f84:	9f a1       	ldd	r25, Y+39	; 0x27
    1f86:	89 2b       	or	r24, r25
    1f88:	69 f7       	brne	.-38     	; 0x1f64 <lcd_init+0xd7c>
    1f8a:	3b c0       	rjmp	.+118    	; 0x2002 <__DATA_REGION_LENGTH__+0x2>
			__ticks --;
		}
		return;
	}
	else
		__ticks = (uint16_t)__tmp;
    1f8c:	6a a1       	ldd	r22, Y+34	; 0x22
    1f8e:	7b a1       	ldd	r23, Y+35	; 0x23
    1f90:	8c a1       	ldd	r24, Y+36	; 0x24
    1f92:	9d a1       	ldd	r25, Y+37	; 0x25
    1f94:	74 d4       	rcall	.+2280   	; 0x287e <__fixunssfsi>
    1f96:	dc 01       	movw	r26, r24
    1f98:	cb 01       	movw	r24, r22
    1f9a:	9f a3       	std	Y+39, r25	; 0x27
    1f9c:	8e a3       	std	Y+38, r24	; 0x26
    1f9e:	8e a1       	ldd	r24, Y+38	; 0x26
    1fa0:	9f a1       	ldd	r25, Y+39	; 0x27
    1fa2:	9b a7       	std	Y+43, r25	; 0x2b
    1fa4:	8a a7       	std	Y+42, r24	; 0x2a
    1fa6:	8a a5       	ldd	r24, Y+42	; 0x2a
    1fa8:	9b a5       	ldd	r25, Y+43	; 0x2b
    1faa:	01 97       	sbiw	r24, 0x01	; 1
    1fac:	f1 f7       	brne	.-4      	; 0x1faa <lcd_init+0xdc2>
    1fae:	9b a7       	std	Y+43, r25	; 0x2b
    1fb0:	8a a7       	std	Y+42, r24	; 0x2a
    1fb2:	27 c0       	rjmp	.+78     	; 0x2002 <__DATA_REGION_LENGTH__+0x2>
		__ticks = 1;
	else if (__tmp2 > 65535)
	{
		_delay_ms(__us / 1000.0);
	}
	else if (__tmp > 255)
    1fb4:	20 e0       	ldi	r18, 0x00	; 0
    1fb6:	30 e0       	ldi	r19, 0x00	; 0
    1fb8:	4f e7       	ldi	r20, 0x7F	; 127
    1fba:	53 e4       	ldi	r21, 0x43	; 67
    1fbc:	6d 89       	ldd	r22, Y+21	; 0x15
    1fbe:	7e 89       	ldd	r23, Y+22	; 0x16
    1fc0:	8f 89       	ldd	r24, Y+23	; 0x17
    1fc2:	98 8d       	ldd	r25, Y+24	; 0x18
    1fc4:	fd d4       	rcall	.+2554   	; 0x29c0 <__gesf2>
    1fc6:	18 16       	cp	r1, r24
    1fc8:	a4 f4       	brge	.+40     	; 0x1ff2 <lcd_init+0xe0a>
	{
		uint16_t __ticks=(uint16_t)__tmp2;
    1fca:	69 8d       	ldd	r22, Y+25	; 0x19
    1fcc:	7a 8d       	ldd	r23, Y+26	; 0x1a
    1fce:	8b 8d       	ldd	r24, Y+27	; 0x1b
    1fd0:	9c 8d       	ldd	r25, Y+28	; 0x1c
    1fd2:	55 d4       	rcall	.+2218   	; 0x287e <__fixunssfsi>
    1fd4:	dc 01       	movw	r26, r24
    1fd6:	cb 01       	movw	r24, r22
    1fd8:	9d a7       	std	Y+45, r25	; 0x2d
    1fda:	8c a7       	std	Y+44, r24	; 0x2c
    1fdc:	8c a5       	ldd	r24, Y+44	; 0x2c
    1fde:	9d a5       	ldd	r25, Y+45	; 0x2d
    1fe0:	9f a7       	std	Y+47, r25	; 0x2f
    1fe2:	8e a7       	std	Y+46, r24	; 0x2e
    1fe4:	8e a5       	ldd	r24, Y+46	; 0x2e
    1fe6:	9f a5       	ldd	r25, Y+47	; 0x2f
    1fe8:	01 97       	sbiw	r24, 0x01	; 1
    1fea:	f1 f7       	brne	.-4      	; 0x1fe8 <lcd_init+0xe00>
		_delay_loop_2(__ticks);
		return;
	}
	else
		__ticks = (uint8_t)__tmp;
    1fec:	9f a7       	std	Y+47, r25	; 0x2f
    1fee:	8e a7       	std	Y+46, r24	; 0x2e
    1ff0:	0e c0       	rjmp	.+28     	; 0x200e <__DATA_REGION_LENGTH__+0xe>
    1ff2:	6d 89       	ldd	r22, Y+21	; 0x15
    1ff4:	7e 89       	ldd	r23, Y+22	; 0x16
    1ff6:	8f 89       	ldd	r24, Y+23	; 0x17
    1ff8:	98 8d       	ldd	r25, Y+24	; 0x18
    1ffa:	41 d4       	rcall	.+2178   	; 0x287e <__fixunssfsi>
    1ffc:	dc 01       	movw	r26, r24
    1ffe:	cb 01       	movw	r24, r22
    2000:	8d 8f       	std	Y+29, r24	; 0x1d
    can be achieved.
*/
void
_delay_loop_1(uint8_t __count)
{
	__asm__ volatile (
    2002:	8d 8d       	ldd	r24, Y+29	; 0x1d
    2004:	88 ab       	std	Y+48, r24	; 0x30
    2006:	88 a9       	ldd	r24, Y+48	; 0x30
    2008:	8a 95       	dec	r24
    /* Display with KS0073 controller requires special commands for enabling 4 line mode */
	lcd_command(KS0073_EXTENDED_FUNCTION_REGISTER_ON);
	lcd_command(KS0073_4LINES_MODE);
	lcd_command(KS0073_EXTENDED_FUNCTION_REGISTER_OFF);
#else
    lcd_command(LCD_FUNCTION_DEFAULT);      /* function set: display lines  */
    200a:	f1 f7       	brne	.-4      	; 0x2008 <__DATA_REGION_LENGTH__+0x8>
    200c:	88 ab       	std	Y+48, r24	; 0x30
    200e:	88 e2       	ldi	r24, 0x28	; 40
#endif
    lcd_command(LCD_DISP_OFF);              /* display off                  */
    2010:	84 d8       	rcall	.-3832   	; 0x111a <lcd_command>
    2012:	88 e0       	ldi	r24, 0x08	; 8
    2014:	82 d8       	rcall	.-3836   	; 0x111a <lcd_command>
    lcd_clrscr();                           /* display clear                */ 
    2016:	a8 d8       	rcall	.-3760   	; 0x1168 <lcd_clrscr>
    2018:	86 e0       	ldi	r24, 0x06	; 6
    lcd_command(LCD_MODE_DEFAULT);          /* set entry mode               */
    201a:	7f d8       	rcall	.-3842   	; 0x111a <lcd_command>
    201c:	ce 01       	movw	r24, r28
    201e:	8f 55       	subi	r24, 0x5F	; 95
    lcd_command(dispAttr);                  /* display/cursor control       */
    2020:	9f 4f       	sbci	r25, 0xFF	; 255
    2022:	fc 01       	movw	r30, r24
    2024:	80 81       	ld	r24, Z
    2026:	79 d8       	rcall	.-3854   	; 0x111a <lcd_command>
    2028:	00 00       	nop
    202a:	cf 55       	subi	r28, 0x5F	; 95
    202c:	df 4f       	sbci	r29, 0xFF	; 255

}/* lcd_init */
    202e:	0f b6       	in	r0, 0x3f	; 63
    2030:	f8 94       	cli
    2032:	de bf       	out	0x3e, r29	; 62
    2034:	0f be       	out	0x3f, r0	; 63
    2036:	cd bf       	out	0x3d, r28	; 61
    2038:	df 91       	pop	r29
    203a:	cf 91       	pop	r28
    203c:	1f 91       	pop	r17
    203e:	0f 91       	pop	r16
    2040:	08 95       	ret

00002042 <main>:
#include "USART/USART.h"

unsigned char color[9] ;//= {'.','.','.','.','.','.','.','.','.'}; // indexing red 0-2, green 3-5, blue 6-8 (alle char er '.' for at genstte vrdierne)

int main(void)
{
    2042:	cf 93       	push	r28
    2044:	df 93       	push	r29
    2046:	cd b7       	in	r28, 0x3d	; 61
    2048:	de b7       	in	r29, 0x3e	; 62
	Init();
    204a:	02 d0       	rcall	.+4      	; 0x2050 <Init>
	
	while (1)
	{
		ColorInput();
    204c:	19 d0       	rcall	.+50     	; 0x2080 <ColorInput>
    204e:	fe cf       	rjmp	.-4      	; 0x204c <main+0xa>

00002050 <Init>:
	}
    2050:	cf 93       	push	r28
}

void Init(void){
    2052:	df 93       	push	r29
    2054:	1f 92       	push	r1
    2056:	1f 92       	push	r1
    2058:	cd b7       	in	r28, 0x3d	; 61
    205a:	de b7       	in	r29, 0x3e	; 62
	lcd_init(LCD_DISP_ON_CURSOR_BLINK);
    205c:	8f e0       	ldi	r24, 0x0F	; 15
    205e:	c4 d8       	rcall	.-3704   	; 0x11e8 <lcd_init>
	char *str = "Welcome";
    2060:	82 e0       	ldi	r24, 0x02	; 2
    2062:	92 e0       	ldi	r25, 0x02	; 2
    2064:	9a 83       	std	Y+2, r25	; 0x02
    2066:	89 83       	std	Y+1, r24	; 0x01
	lcd_puts(str);
    2068:	89 81       	ldd	r24, Y+1	; 0x01
    206a:	9a 81       	ldd	r25, Y+2	; 0x02
    206c:	9f d8       	rcall	.-3778   	; 0x11ac <lcd_puts>
	Keypad_Init();
    206e:	0e 94 0c 01 	call	0x218	; 0x218 <Keypad_Init>
	USART_Init();
    2072:	7e d3       	rcall	.+1788   	; 0x2770 <USART_Init>
}
    2074:	00 00       	nop
    2076:	0f 90       	pop	r0
    2078:	0f 90       	pop	r0
    207a:	df 91       	pop	r29
    207c:	cf 91       	pop	r28
    207e:	08 95       	ret

00002080 <ColorInput>:

void ColorInput(void){
    2080:	cf 93       	push	r28
    2082:	df 93       	push	r29
    2084:	cd b7       	in	r28, 0x3d	; 61
    2086:	de b7       	in	r29, 0x3e	; 62
    2088:	6e 97       	sbiw	r28, 0x1e	; 30
    208a:	0f b6       	in	r0, 0x3f	; 63
    208c:	f8 94       	cli
    208e:	de bf       	out	0x3e, r29	; 62
    2090:	0f be       	out	0x3f, r0	; 63
    2092:	cd bf       	out	0x3d, r28	; 61
	//char colorcnt;

	//reset color
	for (char cnt = 0; cnt < 9; cnt++)
    2094:	19 82       	std	Y+1, r1	; 0x01
    2096:	0b c0       	rjmp	.+22     	; 0x20ae <ColorInput+0x2e>
	{
		color[cnt] = '.';
    2098:	89 81       	ldd	r24, Y+1	; 0x01
    209a:	88 2f       	mov	r24, r24
    209c:	90 e0       	ldi	r25, 0x00	; 0
    209e:	86 5b       	subi	r24, 0xB6	; 182
    20a0:	9d 4f       	sbci	r25, 0xFD	; 253
    20a2:	2e e2       	ldi	r18, 0x2E	; 46
    20a4:	fc 01       	movw	r30, r24
    20a6:	20 83       	st	Z, r18

void ColorInput(void){
	//char colorcnt;

	//reset color
	for (char cnt = 0; cnt < 9; cnt++)
    20a8:	89 81       	ldd	r24, Y+1	; 0x01
    20aa:	8f 5f       	subi	r24, 0xFF	; 255
    20ac:	89 83       	std	Y+1, r24	; 0x01
    20ae:	89 81       	ldd	r24, Y+1	; 0x01
    20b0:	89 30       	cpi	r24, 0x09	; 9
    20b2:	90 f3       	brcs	.-28     	; 0x2098 <ColorInput+0x18>
	{
		color[cnt] = '.';
	}
	
	for (char colorcnt = 0; colorcnt < 9; colorcnt++)
    20b4:	1a 82       	std	Y+2, r1	; 0x02
    20b6:	25 c1       	rjmp	.+586    	; 0x2302 <__stack+0x103>
	{
		switch (colorcnt)
    20b8:	8a 81       	ldd	r24, Y+2	; 0x02
    20ba:	88 2f       	mov	r24, r24
    20bc:	90 e0       	ldi	r25, 0x00	; 0
    20be:	83 30       	cpi	r24, 0x03	; 3
    20c0:	91 05       	cpc	r25, r1
    20c2:	79 f0       	breq	.+30     	; 0x20e2 <ColorInput+0x62>
    20c4:	86 30       	cpi	r24, 0x06	; 6
    20c6:	91 05       	cpc	r25, r1
    20c8:	09 f4       	brne	.+2      	; 0x20cc <ColorInput+0x4c>
    20ca:	82 c0       	rjmp	.+260    	; 0x21d0 <ColorInput+0x150>
    20cc:	89 2b       	or	r24, r25
    20ce:	09 f0       	breq	.+2      	; 0x20d2 <ColorInput+0x52>
    20d0:	f6 c0       	rjmp	.+492    	; 0x22be <__stack+0xbf>
		{
			case 0:			//Rd
			lcd_clrscr();
    20d2:	4a d8       	rcall	.-3948   	; 0x1168 <lcd_clrscr>
			lcd_puts("Color:\nRed: ");
    20d4:	8a e0       	ldi	r24, 0x0A	; 10
    20d6:	92 e0       	ldi	r25, 0x02	; 2
    20d8:	69 d8       	rcall	.-3886   	; 0x11ac <lcd_puts>
			lcd_gotoxy(13,1);
    20da:	61 e0       	ldi	r22, 0x01	; 1
    20dc:	8d e0       	ldi	r24, 0x0D	; 13
    20de:	2c d8       	rcall	.-4008   	; 0x1138 <lcd_gotoxy>
			break;
    20e0:	00 c1       	rjmp	.+512    	; 0x22e2 <__stack+0xe3>
    20e2:	80 e0       	ldi	r24, 0x00	; 0
    20e4:	90 e0       	ldi	r25, 0x00	; 0
    20e6:	aa ef       	ldi	r26, 0xFA	; 250
    20e8:	b3 e4       	ldi	r27, 0x43	; 67
    20ea:	8f 83       	std	Y+7, r24	; 0x07
    20ec:	98 87       	std	Y+8, r25	; 0x08
    20ee:	a9 87       	std	Y+9, r26	; 0x09
    20f0:	ba 87       	std	Y+10, r27	; 0x0a

	__builtin_avr_delay_cycles(__ticks_dc);

#else
	uint16_t __ticks;
	__tmp = ((F_CPU) / 4e3) * __ms;
    20f2:	20 e0       	ldi	r18, 0x00	; 0
    20f4:	30 e0       	ldi	r19, 0x00	; 0
    20f6:	4a e7       	ldi	r20, 0x7A	; 122
    20f8:	55 e4       	ldi	r21, 0x45	; 69
    20fa:	6f 81       	ldd	r22, Y+7	; 0x07
    20fc:	78 85       	ldd	r23, Y+8	; 0x08
    20fe:	89 85       	ldd	r24, Y+9	; 0x09
    2100:	9a 85       	ldd	r25, Y+10	; 0x0a
    2102:	62 d4       	rcall	.+2244   	; 0x29c8 <__mulsf3>
    2104:	dc 01       	movw	r26, r24
    2106:	cb 01       	movw	r24, r22
    2108:	8b 87       	std	Y+11, r24	; 0x0b
    210a:	9c 87       	std	Y+12, r25	; 0x0c
    210c:	ad 87       	std	Y+13, r26	; 0x0d
    210e:	be 87       	std	Y+14, r27	; 0x0e
	if (__tmp < 1.0)
    2110:	20 e0       	ldi	r18, 0x00	; 0
    2112:	30 e0       	ldi	r19, 0x00	; 0
    2114:	40 e8       	ldi	r20, 0x80	; 128
    2116:	5f e3       	ldi	r21, 0x3F	; 63
    2118:	6b 85       	ldd	r22, Y+11	; 0x0b
    211a:	7c 85       	ldd	r23, Y+12	; 0x0c
    211c:	8d 85       	ldd	r24, Y+13	; 0x0d
    211e:	9e 85       	ldd	r25, Y+14	; 0x0e
    2120:	42 d3       	rcall	.+1668   	; 0x27a6 <__cmpsf2>
    2122:	88 23       	and	r24, r24
    2124:	2c f4       	brge	.+10     	; 0x2130 <ColorInput+0xb0>
		__ticks = 1;
    2126:	81 e0       	ldi	r24, 0x01	; 1
    2128:	90 e0       	ldi	r25, 0x00	; 0
    212a:	98 8b       	std	Y+16, r25	; 0x10
    212c:	8f 87       	std	Y+15, r24	; 0x0f
    212e:	3b c0       	rjmp	.+118    	; 0x21a6 <ColorInput+0x126>
	else if (__tmp > 65535)
    2130:	20 e0       	ldi	r18, 0x00	; 0
    2132:	3f ef       	ldi	r19, 0xFF	; 255
    2134:	4f e7       	ldi	r20, 0x7F	; 127
    2136:	57 e4       	ldi	r21, 0x47	; 71
    2138:	6b 85       	ldd	r22, Y+11	; 0x0b
    213a:	7c 85       	ldd	r23, Y+12	; 0x0c
    213c:	8d 85       	ldd	r24, Y+13	; 0x0d
    213e:	9e 85       	ldd	r25, Y+14	; 0x0e
    2140:	3f d4       	rcall	.+2174   	; 0x29c0 <__gesf2>
    2142:	18 16       	cp	r1, r24
    2144:	3c f5       	brge	.+78     	; 0x2194 <ColorInput+0x114>
	{
		//	__ticks = requested delay in 1/10 ms
		__ticks = (uint16_t) (__ms * 10.0);
    2146:	20 e0       	ldi	r18, 0x00	; 0
    2148:	30 e0       	ldi	r19, 0x00	; 0
    214a:	40 e2       	ldi	r20, 0x20	; 32
    214c:	51 e4       	ldi	r21, 0x41	; 65
    214e:	6f 81       	ldd	r22, Y+7	; 0x07
    2150:	78 85       	ldd	r23, Y+8	; 0x08
    2152:	89 85       	ldd	r24, Y+9	; 0x09
    2154:	9a 85       	ldd	r25, Y+10	; 0x0a
    2156:	38 d4       	rcall	.+2160   	; 0x29c8 <__mulsf3>
    2158:	dc 01       	movw	r26, r24
    215a:	cb 01       	movw	r24, r22
    215c:	bc 01       	movw	r22, r24
    215e:	cd 01       	movw	r24, r26
    2160:	8e d3       	rcall	.+1820   	; 0x287e <__fixunssfsi>
    2162:	dc 01       	movw	r26, r24
    2164:	cb 01       	movw	r24, r22
    2166:	98 8b       	std	Y+16, r25	; 0x10
    2168:	8f 87       	std	Y+15, r24	; 0x0f
    216a:	0f c0       	rjmp	.+30     	; 0x218a <ColorInput+0x10a>
    216c:	80 e9       	ldi	r24, 0x90	; 144
    216e:	91 e0       	ldi	r25, 0x01	; 1
    2170:	9a 8b       	std	Y+18, r25	; 0x12
    2172:	89 8b       	std	Y+17, r24	; 0x11
    milliseconds can be achieved.
 */
void
_delay_loop_2(uint16_t __count)
{
	__asm__ volatile (
    2174:	89 89       	ldd	r24, Y+17	; 0x11
    2176:	9a 89       	ldd	r25, Y+18	; 0x12
    2178:	01 97       	sbiw	r24, 0x01	; 1
    217a:	f1 f7       	brne	.-4      	; 0x2178 <ColorInput+0xf8>
    217c:	9a 8b       	std	Y+18, r25	; 0x12
    217e:	89 8b       	std	Y+17, r24	; 0x11
		while(__ticks)
		{
			// wait 1/10 ms
			_delay_loop_2(((F_CPU) / 4e3) / 10);
			__ticks --;
    2180:	8f 85       	ldd	r24, Y+15	; 0x0f
    2182:	98 89       	ldd	r25, Y+16	; 0x10
    2184:	01 97       	sbiw	r24, 0x01	; 1
    2186:	98 8b       	std	Y+16, r25	; 0x10
    2188:	8f 87       	std	Y+15, r24	; 0x0f
		__ticks = 1;
	else if (__tmp > 65535)
	{
		//	__ticks = requested delay in 1/10 ms
		__ticks = (uint16_t) (__ms * 10.0);
		while(__ticks)
    218a:	8f 85       	ldd	r24, Y+15	; 0x0f
    218c:	98 89       	ldd	r25, Y+16	; 0x10
    218e:	89 2b       	or	r24, r25
    2190:	69 f7       	brne	.-38     	; 0x216c <ColorInput+0xec>
			__ticks --;
		}
		return;
	}
	else
		__ticks = (uint16_t)__tmp;
    2192:	13 c0       	rjmp	.+38     	; 0x21ba <ColorInput+0x13a>
    2194:	6b 85       	ldd	r22, Y+11	; 0x0b
    2196:	7c 85       	ldd	r23, Y+12	; 0x0c
    2198:	8d 85       	ldd	r24, Y+13	; 0x0d
    219a:	9e 85       	ldd	r25, Y+14	; 0x0e
    219c:	70 d3       	rcall	.+1760   	; 0x287e <__fixunssfsi>
    219e:	dc 01       	movw	r26, r24
    21a0:	cb 01       	movw	r24, r22
    21a2:	98 8b       	std	Y+16, r25	; 0x10
    21a4:	8f 87       	std	Y+15, r24	; 0x0f
    21a6:	8f 85       	ldd	r24, Y+15	; 0x0f
    21a8:	98 89       	ldd	r25, Y+16	; 0x10
    21aa:	9c 8b       	std	Y+20, r25	; 0x14
    21ac:	8b 8b       	std	Y+19, r24	; 0x13
    21ae:	8b 89       	ldd	r24, Y+19	; 0x13
    21b0:	9c 89       	ldd	r25, Y+20	; 0x14
    21b2:	01 97       	sbiw	r24, 0x01	; 1
    21b4:	f1 f7       	brne	.-4      	; 0x21b2 <ColorInput+0x132>
    21b6:	9c 8b       	std	Y+20, r25	; 0x14
    21b8:	8b 8b       	std	Y+19, r24	; 0x13
			case 3:			//Grn
			_delay_ms(500);
			lcd_clrscr();
    21ba:	0e 94 b4 08 	call	0x1168	; 0x1168 <lcd_clrscr>
			lcd_puts("Color:\nGreen: ");
    21be:	87 e1       	ldi	r24, 0x17	; 23
    21c0:	92 e0       	ldi	r25, 0x02	; 2
    21c2:	0e 94 d6 08 	call	0x11ac	; 0x11ac <lcd_puts>
			lcd_gotoxy(13,1);
    21c6:	61 e0       	ldi	r22, 0x01	; 1
    21c8:	8d e0       	ldi	r24, 0x0D	; 13
    21ca:	0e 94 9c 08 	call	0x1138	; 0x1138 <lcd_gotoxy>
			break;
    21ce:	89 c0       	rjmp	.+274    	; 0x22e2 <__stack+0xe3>
    21d0:	80 e0       	ldi	r24, 0x00	; 0
    21d2:	90 e0       	ldi	r25, 0x00	; 0
    21d4:	aa ef       	ldi	r26, 0xFA	; 250
    21d6:	b3 e4       	ldi	r27, 0x43	; 67
    21d8:	8b 83       	std	Y+3, r24	; 0x03
    21da:	9c 83       	std	Y+4, r25	; 0x04
    21dc:	ad 83       	std	Y+5, r26	; 0x05
    21de:	be 83       	std	Y+6, r27	; 0x06

	__builtin_avr_delay_cycles(__ticks_dc);

#else
	uint16_t __ticks;
	__tmp = ((F_CPU) / 4e3) * __ms;
    21e0:	20 e0       	ldi	r18, 0x00	; 0
    21e2:	30 e0       	ldi	r19, 0x00	; 0
    21e4:	4a e7       	ldi	r20, 0x7A	; 122
    21e6:	55 e4       	ldi	r21, 0x45	; 69
    21e8:	6b 81       	ldd	r22, Y+3	; 0x03
    21ea:	7c 81       	ldd	r23, Y+4	; 0x04
    21ec:	8d 81       	ldd	r24, Y+5	; 0x05
    21ee:	9e 81       	ldd	r25, Y+6	; 0x06
    21f0:	eb d3       	rcall	.+2006   	; 0x29c8 <__mulsf3>
    21f2:	dc 01       	movw	r26, r24
    21f4:	cb 01       	movw	r24, r22
    21f6:	8d 8b       	std	Y+21, r24	; 0x15
    21f8:	9e 8b       	std	Y+22, r25	; 0x16
    21fa:	af 8b       	std	Y+23, r26	; 0x17
    21fc:	b8 8f       	std	Y+24, r27	; 0x18
	if (__tmp < 1.0)
    21fe:	20 e0       	ldi	r18, 0x00	; 0
    2200:	30 e0       	ldi	r19, 0x00	; 0
    2202:	40 e8       	ldi	r20, 0x80	; 128
    2204:	5f e3       	ldi	r21, 0x3F	; 63
    2206:	6d 89       	ldd	r22, Y+21	; 0x15
    2208:	7e 89       	ldd	r23, Y+22	; 0x16
    220a:	8f 89       	ldd	r24, Y+23	; 0x17
    220c:	98 8d       	ldd	r25, Y+24	; 0x18
    220e:	cb d2       	rcall	.+1430   	; 0x27a6 <__cmpsf2>
    2210:	88 23       	and	r24, r24
    2212:	2c f4       	brge	.+10     	; 0x221e <__stack+0x1f>
		__ticks = 1;
    2214:	81 e0       	ldi	r24, 0x01	; 1
    2216:	90 e0       	ldi	r25, 0x00	; 0
    2218:	9a 8f       	std	Y+26, r25	; 0x1a
    221a:	89 8f       	std	Y+25, r24	; 0x19
	else if (__tmp > 65535)
    221c:	3b c0       	rjmp	.+118    	; 0x2294 <__stack+0x95>
    221e:	20 e0       	ldi	r18, 0x00	; 0
    2220:	3f ef       	ldi	r19, 0xFF	; 255
    2222:	4f e7       	ldi	r20, 0x7F	; 127
    2224:	57 e4       	ldi	r21, 0x47	; 71
    2226:	6d 89       	ldd	r22, Y+21	; 0x15
    2228:	7e 89       	ldd	r23, Y+22	; 0x16
    222a:	8f 89       	ldd	r24, Y+23	; 0x17
    222c:	98 8d       	ldd	r25, Y+24	; 0x18
    222e:	c8 d3       	rcall	.+1936   	; 0x29c0 <__gesf2>
    2230:	18 16       	cp	r1, r24
	{
		//	__ticks = requested delay in 1/10 ms
		__ticks = (uint16_t) (__ms * 10.0);
    2232:	3c f5       	brge	.+78     	; 0x2282 <__stack+0x83>
    2234:	20 e0       	ldi	r18, 0x00	; 0
    2236:	30 e0       	ldi	r19, 0x00	; 0
    2238:	40 e2       	ldi	r20, 0x20	; 32
    223a:	51 e4       	ldi	r21, 0x41	; 65
    223c:	6b 81       	ldd	r22, Y+3	; 0x03
    223e:	7c 81       	ldd	r23, Y+4	; 0x04
    2240:	8d 81       	ldd	r24, Y+5	; 0x05
    2242:	9e 81       	ldd	r25, Y+6	; 0x06
    2244:	c1 d3       	rcall	.+1922   	; 0x29c8 <__mulsf3>
    2246:	dc 01       	movw	r26, r24
    2248:	cb 01       	movw	r24, r22
    224a:	bc 01       	movw	r22, r24
    224c:	cd 01       	movw	r24, r26
    224e:	17 d3       	rcall	.+1582   	; 0x287e <__fixunssfsi>
    2250:	dc 01       	movw	r26, r24
    2252:	cb 01       	movw	r24, r22
    2254:	9a 8f       	std	Y+26, r25	; 0x1a
    2256:	89 8f       	std	Y+25, r24	; 0x19
    2258:	0f c0       	rjmp	.+30     	; 0x2278 <__stack+0x79>
    225a:	80 e9       	ldi	r24, 0x90	; 144
    225c:	91 e0       	ldi	r25, 0x01	; 1
    225e:	9c 8f       	std	Y+28, r25	; 0x1c
    2260:	8b 8f       	std	Y+27, r24	; 0x1b
    2262:	8b 8d       	ldd	r24, Y+27	; 0x1b
    2264:	9c 8d       	ldd	r25, Y+28	; 0x1c
    2266:	01 97       	sbiw	r24, 0x01	; 1
    2268:	f1 f7       	brne	.-4      	; 0x2266 <__stack+0x67>
    226a:	9c 8f       	std	Y+28, r25	; 0x1c
    226c:	8b 8f       	std	Y+27, r24	; 0x1b
		while(__ticks)
		{
			// wait 1/10 ms
			_delay_loop_2(((F_CPU) / 4e3) / 10);
			__ticks --;
    226e:	89 8d       	ldd	r24, Y+25	; 0x19
    2270:	9a 8d       	ldd	r25, Y+26	; 0x1a
    2272:	01 97       	sbiw	r24, 0x01	; 1
    2274:	9a 8f       	std	Y+26, r25	; 0x1a
		__ticks = 1;
	else if (__tmp > 65535)
	{
		//	__ticks = requested delay in 1/10 ms
		__ticks = (uint16_t) (__ms * 10.0);
		while(__ticks)
    2276:	89 8f       	std	Y+25, r24	; 0x19
    2278:	89 8d       	ldd	r24, Y+25	; 0x19
    227a:	9a 8d       	ldd	r25, Y+26	; 0x1a
    227c:	89 2b       	or	r24, r25
    227e:	69 f7       	brne	.-38     	; 0x225a <__stack+0x5b>
			__ticks --;
		}
		return;
	}
	else
		__ticks = (uint16_t)__tmp;
    2280:	13 c0       	rjmp	.+38     	; 0x22a8 <__stack+0xa9>
    2282:	6d 89       	ldd	r22, Y+21	; 0x15
    2284:	7e 89       	ldd	r23, Y+22	; 0x16
    2286:	8f 89       	ldd	r24, Y+23	; 0x17
    2288:	98 8d       	ldd	r25, Y+24	; 0x18
    228a:	f9 d2       	rcall	.+1522   	; 0x287e <__fixunssfsi>
    228c:	dc 01       	movw	r26, r24
    228e:	cb 01       	movw	r24, r22
    2290:	9a 8f       	std	Y+26, r25	; 0x1a
    2292:	89 8f       	std	Y+25, r24	; 0x19
    2294:	89 8d       	ldd	r24, Y+25	; 0x19
    2296:	9a 8d       	ldd	r25, Y+26	; 0x1a
    2298:	9e 8f       	std	Y+30, r25	; 0x1e
    229a:	8d 8f       	std	Y+29, r24	; 0x1d
    229c:	8d 8d       	ldd	r24, Y+29	; 0x1d
    229e:	9e 8d       	ldd	r25, Y+30	; 0x1e
    22a0:	01 97       	sbiw	r24, 0x01	; 1
    22a2:	f1 f7       	brne	.-4      	; 0x22a0 <__stack+0xa1>
    22a4:	9e 8f       	std	Y+30, r25	; 0x1e
    22a6:	8d 8f       	std	Y+29, r24	; 0x1d
			case 6:			//Bl
			_delay_ms(500);
			lcd_clrscr();
    22a8:	0e 94 b4 08 	call	0x1168	; 0x1168 <lcd_clrscr>
			lcd_puts("Color:\nBlue: ");
    22ac:	86 e2       	ldi	r24, 0x26	; 38
    22ae:	92 e0       	ldi	r25, 0x02	; 2
    22b0:	0e 94 d6 08 	call	0x11ac	; 0x11ac <lcd_puts>
			lcd_gotoxy(13,1);
    22b4:	61 e0       	ldi	r22, 0x01	; 1
    22b6:	8d e0       	ldi	r24, 0x0D	; 13
    22b8:	0e 94 9c 08 	call	0x1138	; 0x1138 <lcd_gotoxy>
			break;
    22bc:	12 c0       	rjmp	.+36     	; 0x22e2 <__stack+0xe3>
			default:
			lcd_gotoxy(13+(colorcnt % 3),1);
    22be:	2a 81       	ldd	r18, Y+2	; 0x02
    22c0:	8b ea       	ldi	r24, 0xAB	; 171
    22c2:	28 9f       	mul	r18, r24
    22c4:	81 2d       	mov	r24, r1
    22c6:	11 24       	eor	r1, r1
    22c8:	98 2f       	mov	r25, r24
    22ca:	96 95       	lsr	r25
    22cc:	89 2f       	mov	r24, r25
    22ce:	88 0f       	add	r24, r24
    22d0:	89 0f       	add	r24, r25
    22d2:	92 2f       	mov	r25, r18
    22d4:	98 1b       	sub	r25, r24
    22d6:	8d e0       	ldi	r24, 0x0D	; 13
    22d8:	89 0f       	add	r24, r25
    22da:	61 e0       	ldi	r22, 0x01	; 1
    22dc:	0e 94 9c 08 	call	0x1138	; 0x1138 <lcd_gotoxy>
			break;
		}
		Input(colorcnt);
    22e0:	00 00       	nop
    22e2:	8a 81       	ldd	r24, Y+2	; 0x02
    22e4:	88 2f       	mov	r24, r24
    22e6:	90 e0       	ldi	r25, 0x00	; 0
    22e8:	1b d0       	rcall	.+54     	; 0x2320 <Input>
		lcd_putc(color[colorcnt]);
    22ea:	8a 81       	ldd	r24, Y+2	; 0x02
    22ec:	88 2f       	mov	r24, r24
    22ee:	90 e0       	ldi	r25, 0x00	; 0
    22f0:	86 5b       	subi	r24, 0xB6	; 182
    22f2:	9d 4f       	sbci	r25, 0xFD	; 253
    22f4:	fc 01       	movw	r30, r24
    22f6:	80 81       	ld	r24, Z
    22f8:	0e 94 be 08 	call	0x117c	; 0x117c <lcd_putc>
	for (char cnt = 0; cnt < 9; cnt++)
	{
		color[cnt] = '.';
	}
	
	for (char colorcnt = 0; colorcnt < 9; colorcnt++)
    22fc:	8a 81       	ldd	r24, Y+2	; 0x02
    22fe:	8f 5f       	subi	r24, 0xFF	; 255
    2300:	8a 83       	std	Y+2, r24	; 0x02
    2302:	8a 81       	ldd	r24, Y+2	; 0x02
    2304:	89 30       	cpi	r24, 0x09	; 9
    2306:	08 f4       	brcc	.+2      	; 0x230a <__stack+0x10b>
		}
		Input(colorcnt);
		lcd_putc(color[colorcnt]);
	}
	
	ValidateAndSend();
    2308:	d7 ce       	rjmp	.-594    	; 0x20b8 <ColorInput+0x38>
    230a:	a7 d0       	rcall	.+334    	; 0x245a <ValidateAndSend>
}
    230c:	00 00       	nop
    230e:	6e 96       	adiw	r28, 0x1e	; 30
    2310:	0f b6       	in	r0, 0x3f	; 63
    2312:	f8 94       	cli
    2314:	de bf       	out	0x3e, r29	; 62
    2316:	0f be       	out	0x3f, r0	; 63
    2318:	cd bf       	out	0x3d, r28	; 61
    231a:	df 91       	pop	r29
    231c:	cf 91       	pop	r28
    231e:	08 95       	ret

00002320 <Input>:

void Input(char colorcnt){
    2320:	0f 93       	push	r16
    2322:	1f 93       	push	r17
    2324:	cf 93       	push	r28
    2326:	df 93       	push	r29
    2328:	cd b7       	in	r28, 0x3d	; 61
    232a:	de b7       	in	r29, 0x3e	; 62
    232c:	2f 97       	sbiw	r28, 0x0f	; 15
    232e:	0f b6       	in	r0, 0x3f	; 63
    2330:	f8 94       	cli
    2332:	de bf       	out	0x3e, r29	; 62
    2334:	0f be       	out	0x3f, r0	; 63
    2336:	cd bf       	out	0x3d, r28	; 61
    2338:	8f 87       	std	Y+15, r24	; 0x0f
	while (color[colorcnt] == '.' )
    233a:	79 c0       	rjmp	.+242    	; 0x242e <Input+0x10e>
    233c:	80 e0       	ldi	r24, 0x00	; 0
    233e:	90 e0       	ldi	r25, 0x00	; 0
    2340:	a8 ec       	ldi	r26, 0xC8	; 200
    2342:	b2 e4       	ldi	r27, 0x42	; 66
    2344:	89 83       	std	Y+1, r24	; 0x01
    2346:	9a 83       	std	Y+2, r25	; 0x02
    2348:	ab 83       	std	Y+3, r26	; 0x03
    234a:	bc 83       	std	Y+4, r27	; 0x04

	__builtin_avr_delay_cycles(__ticks_dc);

#else
	uint16_t __ticks;
	__tmp = ((F_CPU) / 4e3) * __ms;
    234c:	20 e0       	ldi	r18, 0x00	; 0
    234e:	30 e0       	ldi	r19, 0x00	; 0
    2350:	4a e7       	ldi	r20, 0x7A	; 122
    2352:	55 e4       	ldi	r21, 0x45	; 69
    2354:	69 81       	ldd	r22, Y+1	; 0x01
    2356:	7a 81       	ldd	r23, Y+2	; 0x02
    2358:	8b 81       	ldd	r24, Y+3	; 0x03
    235a:	9c 81       	ldd	r25, Y+4	; 0x04
    235c:	35 d3       	rcall	.+1642   	; 0x29c8 <__mulsf3>
    235e:	dc 01       	movw	r26, r24
    2360:	cb 01       	movw	r24, r22
    2362:	8d 83       	std	Y+5, r24	; 0x05
    2364:	9e 83       	std	Y+6, r25	; 0x06
    2366:	af 83       	std	Y+7, r26	; 0x07
    2368:	b8 87       	std	Y+8, r27	; 0x08
	if (__tmp < 1.0)
    236a:	20 e0       	ldi	r18, 0x00	; 0
    236c:	30 e0       	ldi	r19, 0x00	; 0
    236e:	40 e8       	ldi	r20, 0x80	; 128
    2370:	5f e3       	ldi	r21, 0x3F	; 63
    2372:	6d 81       	ldd	r22, Y+5	; 0x05
    2374:	7e 81       	ldd	r23, Y+6	; 0x06
    2376:	8f 81       	ldd	r24, Y+7	; 0x07
    2378:	98 85       	ldd	r25, Y+8	; 0x08
    237a:	15 d2       	rcall	.+1066   	; 0x27a6 <__cmpsf2>
    237c:	88 23       	and	r24, r24
    237e:	2c f4       	brge	.+10     	; 0x238a <Input+0x6a>
		__ticks = 1;
    2380:	81 e0       	ldi	r24, 0x01	; 1
    2382:	90 e0       	ldi	r25, 0x00	; 0
    2384:	9a 87       	std	Y+10, r25	; 0x0a
    2386:	89 87       	std	Y+9, r24	; 0x09
    2388:	3b c0       	rjmp	.+118    	; 0x2400 <Input+0xe0>
	else if (__tmp > 65535)
    238a:	20 e0       	ldi	r18, 0x00	; 0
    238c:	3f ef       	ldi	r19, 0xFF	; 255
    238e:	4f e7       	ldi	r20, 0x7F	; 127
    2390:	57 e4       	ldi	r21, 0x47	; 71
    2392:	6d 81       	ldd	r22, Y+5	; 0x05
    2394:	7e 81       	ldd	r23, Y+6	; 0x06
    2396:	8f 81       	ldd	r24, Y+7	; 0x07
    2398:	98 85       	ldd	r25, Y+8	; 0x08
    239a:	12 d3       	rcall	.+1572   	; 0x29c0 <__gesf2>
    239c:	18 16       	cp	r1, r24
    239e:	3c f5       	brge	.+78     	; 0x23ee <Input+0xce>
	{
		//	__ticks = requested delay in 1/10 ms
		__ticks = (uint16_t) (__ms * 10.0);
    23a0:	20 e0       	ldi	r18, 0x00	; 0
    23a2:	30 e0       	ldi	r19, 0x00	; 0
    23a4:	40 e2       	ldi	r20, 0x20	; 32
    23a6:	51 e4       	ldi	r21, 0x41	; 65
    23a8:	69 81       	ldd	r22, Y+1	; 0x01
    23aa:	7a 81       	ldd	r23, Y+2	; 0x02
    23ac:	8b 81       	ldd	r24, Y+3	; 0x03
    23ae:	9c 81       	ldd	r25, Y+4	; 0x04
    23b0:	0b d3       	rcall	.+1558   	; 0x29c8 <__mulsf3>
    23b2:	dc 01       	movw	r26, r24
    23b4:	cb 01       	movw	r24, r22
    23b6:	bc 01       	movw	r22, r24
    23b8:	cd 01       	movw	r24, r26
    23ba:	61 d2       	rcall	.+1218   	; 0x287e <__fixunssfsi>
    23bc:	dc 01       	movw	r26, r24
    23be:	cb 01       	movw	r24, r22
    23c0:	9a 87       	std	Y+10, r25	; 0x0a
    23c2:	89 87       	std	Y+9, r24	; 0x09
    23c4:	0f c0       	rjmp	.+30     	; 0x23e4 <Input+0xc4>
    23c6:	80 e9       	ldi	r24, 0x90	; 144
    23c8:	91 e0       	ldi	r25, 0x01	; 1
    23ca:	9c 87       	std	Y+12, r25	; 0x0c
    23cc:	8b 87       	std	Y+11, r24	; 0x0b
    23ce:	8b 85       	ldd	r24, Y+11	; 0x0b
    23d0:	9c 85       	ldd	r25, Y+12	; 0x0c
    23d2:	01 97       	sbiw	r24, 0x01	; 1
    23d4:	f1 f7       	brne	.-4      	; 0x23d2 <Input+0xb2>
    23d6:	9c 87       	std	Y+12, r25	; 0x0c
    23d8:	8b 87       	std	Y+11, r24	; 0x0b
		while(__ticks)
		{
			// wait 1/10 ms
			_delay_loop_2(((F_CPU) / 4e3) / 10);
			__ticks --;
    23da:	89 85       	ldd	r24, Y+9	; 0x09
    23dc:	9a 85       	ldd	r25, Y+10	; 0x0a
    23de:	01 97       	sbiw	r24, 0x01	; 1
    23e0:	9a 87       	std	Y+10, r25	; 0x0a
    23e2:	89 87       	std	Y+9, r24	; 0x09
		__ticks = 1;
	else if (__tmp > 65535)
	{
		//	__ticks = requested delay in 1/10 ms
		__ticks = (uint16_t) (__ms * 10.0);
		while(__ticks)
    23e4:	89 85       	ldd	r24, Y+9	; 0x09
    23e6:	9a 85       	ldd	r25, Y+10	; 0x0a
    23e8:	89 2b       	or	r24, r25
    23ea:	69 f7       	brne	.-38     	; 0x23c6 <Input+0xa6>
			__ticks --;
		}
		return;
	}
	else
		__ticks = (uint16_t)__tmp;
    23ec:	13 c0       	rjmp	.+38     	; 0x2414 <Input+0xf4>
    23ee:	6d 81       	ldd	r22, Y+5	; 0x05
    23f0:	7e 81       	ldd	r23, Y+6	; 0x06
    23f2:	8f 81       	ldd	r24, Y+7	; 0x07
    23f4:	98 85       	ldd	r25, Y+8	; 0x08
    23f6:	43 d2       	rcall	.+1158   	; 0x287e <__fixunssfsi>
    23f8:	dc 01       	movw	r26, r24
    23fa:	cb 01       	movw	r24, r22
    23fc:	9a 87       	std	Y+10, r25	; 0x0a
    23fe:	89 87       	std	Y+9, r24	; 0x09
    2400:	89 85       	ldd	r24, Y+9	; 0x09
    2402:	9a 85       	ldd	r25, Y+10	; 0x0a
    2404:	9e 87       	std	Y+14, r25	; 0x0e
    2406:	8d 87       	std	Y+13, r24	; 0x0d
    2408:	8d 85       	ldd	r24, Y+13	; 0x0d
    240a:	9e 85       	ldd	r25, Y+14	; 0x0e
    240c:	01 97       	sbiw	r24, 0x01	; 1
    240e:	f1 f7       	brne	.-4      	; 0x240c <Input+0xec>
    2410:	9e 87       	std	Y+14, r25	; 0x0e
    2412:	8d 87       	std	Y+13, r24	; 0x0d
	{
		_delay_ms(100);
		ColumnScan();
    2414:	0e 94 22 01 	call	0x244	; 0x244 <ColumnScan>
		color[colorcnt] = ReadRows();
    2418:	8f 85       	ldd	r24, Y+15	; 0x0f
    241a:	08 2f       	mov	r16, r24
    241c:	10 e0       	ldi	r17, 0x00	; 0
    241e:	0e 94 7e 01 	call	0x2fc	; 0x2fc <ReadRows>
    2422:	28 2f       	mov	r18, r24
    2424:	c8 01       	movw	r24, r16
    2426:	86 5b       	subi	r24, 0xB6	; 182
    2428:	9d 4f       	sbci	r25, 0xFD	; 253
    242a:	fc 01       	movw	r30, r24
    242c:	20 83       	st	Z, r18
	
	ValidateAndSend();
}

void Input(char colorcnt){
	while (color[colorcnt] == '.' )
    242e:	8f 85       	ldd	r24, Y+15	; 0x0f
    2430:	88 2f       	mov	r24, r24
    2432:	90 e0       	ldi	r25, 0x00	; 0
    2434:	86 5b       	subi	r24, 0xB6	; 182
    2436:	9d 4f       	sbci	r25, 0xFD	; 253
    2438:	fc 01       	movw	r30, r24
    243a:	80 81       	ld	r24, Z
    243c:	8e 32       	cpi	r24, 0x2E	; 46
    243e:	09 f4       	brne	.+2      	; 0x2442 <Input+0x122>
    2440:	7d cf       	rjmp	.-262    	; 0x233c <Input+0x1c>
	{
		_delay_ms(100);
		ColumnScan();
		color[colorcnt] = ReadRows();
	}
}
    2442:	00 00       	nop
    2444:	2f 96       	adiw	r28, 0x0f	; 15
    2446:	0f b6       	in	r0, 0x3f	; 63
    2448:	f8 94       	cli
    244a:	de bf       	out	0x3e, r29	; 62
    244c:	0f be       	out	0x3f, r0	; 63
    244e:	cd bf       	out	0x3d, r28	; 61
    2450:	df 91       	pop	r29
    2452:	cf 91       	pop	r28
    2454:	1f 91       	pop	r17
    2456:	0f 91       	pop	r16
    2458:	08 95       	ret

0000245a <ValidateAndSend>:

void ValidateAndSend(void){
    245a:	cf 93       	push	r28
    245c:	df 93       	push	r29
    245e:	1f 92       	push	r1
    2460:	1f 92       	push	r1
    2462:	cd b7       	in	r28, 0x3d	; 61
    2464:	de b7       	in	r29, 0x3e	; 62
	int colorState = ColorValidator(color);
    2466:	8a e4       	ldi	r24, 0x4A	; 74
    2468:	92 e0       	ldi	r25, 0x02	; 2
    246a:	a8 d0       	rcall	.+336    	; 0x25bc <ColorValidator>
    246c:	9a 83       	std	Y+2, r25	; 0x02
    246e:	89 83       	std	Y+1, r24	; 0x01
	if (colorState < 0)
    2470:	89 81       	ldd	r24, Y+1	; 0x01
    2472:	9a 81       	ldd	r25, Y+2	; 0x02
    2474:	99 23       	and	r25, r25
    2476:	24 f4       	brge	.+8      	; 0x2480 <ValidateAndSend+0x26>
	{
		ErrorPrint(colorState);
    2478:	89 81       	ldd	r24, Y+1	; 0x01
    247a:	9a 81       	ldd	r25, Y+2	; 0x02
    247c:	0a d0       	rcall	.+20     	; 0x2492 <ErrorPrint>
	}
	else
	{
		SendData(color);
	}
}
    247e:	03 c0       	rjmp	.+6      	; 0x2486 <ValidateAndSend+0x2c>
	{
		ErrorPrint(colorState);
	}
	else
	{
		SendData(color);
    2480:	8a e4       	ldi	r24, 0x4A	; 74
    2482:	92 e0       	ldi	r25, 0x02	; 2
    2484:	34 d1       	rcall	.+616    	; 0x26ee <SendData>
	}
}
    2486:	00 00       	nop
    2488:	0f 90       	pop	r0
    248a:	0f 90       	pop	r0
    248c:	df 91       	pop	r29
    248e:	cf 91       	pop	r28
    2490:	08 95       	ret

00002492 <ErrorPrint>:

void ErrorPrint(int colorState){
    2492:	cf 93       	push	r28
    2494:	df 93       	push	r29
    2496:	cd b7       	in	r28, 0x3d	; 61
    2498:	de b7       	in	r29, 0x3e	; 62
    249a:	69 97       	sbiw	r28, 0x19	; 25
    249c:	0f b6       	in	r0, 0x3f	; 63
    249e:	f8 94       	cli
    24a0:	de bf       	out	0x3e, r29	; 62
    24a2:	0f be       	out	0x3f, r0	; 63
    24a4:	cd bf       	out	0x3d, r28	; 61
    24a6:	99 8f       	std	Y+25, r25	; 0x19
    24a8:	88 8f       	std	Y+24, r24	; 0x18
	lcd_clrscr();
    24aa:	0e 94 b4 08 	call	0x1168	; 0x1168 <lcd_clrscr>
	lcd_puts("No color set,\nError: ");
    24ae:	84 e3       	ldi	r24, 0x34	; 52
    24b0:	92 e0       	ldi	r25, 0x02	; 2
    24b2:	0e 94 d6 08 	call	0x11ac	; 0x11ac <lcd_puts>
	char errornr[9];
	itoa(colorState, errornr, 10);
    24b6:	9e 01       	movw	r18, r28
    24b8:	21 5f       	subi	r18, 0xF1	; 241
    24ba:	3f 4f       	sbci	r19, 0xFF	; 255
    24bc:	88 8d       	ldd	r24, Y+24	; 0x18
    24be:	99 8d       	ldd	r25, Y+25	; 0x19
    24c0:	4a e0       	ldi	r20, 0x0A	; 10
    24c2:	50 e0       	ldi	r21, 0x00	; 0
    24c4:	b9 01       	movw	r22, r18
    24c6:	eb d2       	rcall	.+1494   	; 0x2a9e <itoa>
	lcd_puts(errornr);
    24c8:	ce 01       	movw	r24, r28
    24ca:	0f 96       	adiw	r24, 0x0f	; 15
    24cc:	0e 94 d6 08 	call	0x11ac	; 0x11ac <lcd_puts>
    24d0:	80 e0       	ldi	r24, 0x00	; 0
    24d2:	90 e4       	ldi	r25, 0x40	; 64
    24d4:	ac e1       	ldi	r26, 0x1C	; 28
    24d6:	b5 e4       	ldi	r27, 0x45	; 69
    24d8:	89 83       	std	Y+1, r24	; 0x01
    24da:	9a 83       	std	Y+2, r25	; 0x02
    24dc:	ab 83       	std	Y+3, r26	; 0x03
    24de:	bc 83       	std	Y+4, r27	; 0x04

	__builtin_avr_delay_cycles(__ticks_dc);

#else
	uint16_t __ticks;
	__tmp = ((F_CPU) / 4e3) * __ms;
    24e0:	20 e0       	ldi	r18, 0x00	; 0
    24e2:	30 e0       	ldi	r19, 0x00	; 0
    24e4:	4a e7       	ldi	r20, 0x7A	; 122
    24e6:	55 e4       	ldi	r21, 0x45	; 69
    24e8:	69 81       	ldd	r22, Y+1	; 0x01
    24ea:	7a 81       	ldd	r23, Y+2	; 0x02
    24ec:	8b 81       	ldd	r24, Y+3	; 0x03
    24ee:	9c 81       	ldd	r25, Y+4	; 0x04
    24f0:	6b d2       	rcall	.+1238   	; 0x29c8 <__mulsf3>
    24f2:	dc 01       	movw	r26, r24
    24f4:	cb 01       	movw	r24, r22
    24f6:	8d 83       	std	Y+5, r24	; 0x05
    24f8:	9e 83       	std	Y+6, r25	; 0x06
    24fa:	af 83       	std	Y+7, r26	; 0x07
    24fc:	b8 87       	std	Y+8, r27	; 0x08
	if (__tmp < 1.0)
    24fe:	20 e0       	ldi	r18, 0x00	; 0
    2500:	30 e0       	ldi	r19, 0x00	; 0
    2502:	40 e8       	ldi	r20, 0x80	; 128
    2504:	5f e3       	ldi	r21, 0x3F	; 63
    2506:	6d 81       	ldd	r22, Y+5	; 0x05
    2508:	7e 81       	ldd	r23, Y+6	; 0x06
    250a:	8f 81       	ldd	r24, Y+7	; 0x07
    250c:	98 85       	ldd	r25, Y+8	; 0x08
    250e:	4b d1       	rcall	.+662    	; 0x27a6 <__cmpsf2>
    2510:	88 23       	and	r24, r24
    2512:	2c f4       	brge	.+10     	; 0x251e <ErrorPrint+0x8c>
		__ticks = 1;
    2514:	81 e0       	ldi	r24, 0x01	; 1
    2516:	90 e0       	ldi	r25, 0x00	; 0
    2518:	9a 87       	std	Y+10, r25	; 0x0a
    251a:	89 87       	std	Y+9, r24	; 0x09
    251c:	3b c0       	rjmp	.+118    	; 0x2594 <ErrorPrint+0x102>
	else if (__tmp > 65535)
    251e:	20 e0       	ldi	r18, 0x00	; 0
    2520:	3f ef       	ldi	r19, 0xFF	; 255
    2522:	4f e7       	ldi	r20, 0x7F	; 127
    2524:	57 e4       	ldi	r21, 0x47	; 71
    2526:	6d 81       	ldd	r22, Y+5	; 0x05
    2528:	7e 81       	ldd	r23, Y+6	; 0x06
    252a:	8f 81       	ldd	r24, Y+7	; 0x07
    252c:	98 85       	ldd	r25, Y+8	; 0x08
    252e:	48 d2       	rcall	.+1168   	; 0x29c0 <__gesf2>
    2530:	18 16       	cp	r1, r24
    2532:	3c f5       	brge	.+78     	; 0x2582 <ErrorPrint+0xf0>
	{
		//	__ticks = requested delay in 1/10 ms
		__ticks = (uint16_t) (__ms * 10.0);
    2534:	20 e0       	ldi	r18, 0x00	; 0
    2536:	30 e0       	ldi	r19, 0x00	; 0
    2538:	40 e2       	ldi	r20, 0x20	; 32
    253a:	51 e4       	ldi	r21, 0x41	; 65
    253c:	69 81       	ldd	r22, Y+1	; 0x01
    253e:	7a 81       	ldd	r23, Y+2	; 0x02
    2540:	8b 81       	ldd	r24, Y+3	; 0x03
    2542:	9c 81       	ldd	r25, Y+4	; 0x04
    2544:	41 d2       	rcall	.+1154   	; 0x29c8 <__mulsf3>
    2546:	dc 01       	movw	r26, r24
    2548:	cb 01       	movw	r24, r22
    254a:	bc 01       	movw	r22, r24
    254c:	cd 01       	movw	r24, r26
    254e:	97 d1       	rcall	.+814    	; 0x287e <__fixunssfsi>
    2550:	dc 01       	movw	r26, r24
    2552:	cb 01       	movw	r24, r22
    2554:	9a 87       	std	Y+10, r25	; 0x0a
    2556:	89 87       	std	Y+9, r24	; 0x09
    2558:	0f c0       	rjmp	.+30     	; 0x2578 <ErrorPrint+0xe6>
    255a:	80 e9       	ldi	r24, 0x90	; 144
    255c:	91 e0       	ldi	r25, 0x01	; 1
    255e:	9c 87       	std	Y+12, r25	; 0x0c
    2560:	8b 87       	std	Y+11, r24	; 0x0b
    2562:	8b 85       	ldd	r24, Y+11	; 0x0b
    2564:	9c 85       	ldd	r25, Y+12	; 0x0c
    2566:	01 97       	sbiw	r24, 0x01	; 1
    2568:	f1 f7       	brne	.-4      	; 0x2566 <ErrorPrint+0xd4>
    256a:	9c 87       	std	Y+12, r25	; 0x0c
    256c:	8b 87       	std	Y+11, r24	; 0x0b
		while(__ticks)
		{
			// wait 1/10 ms
			_delay_loop_2(((F_CPU) / 4e3) / 10);
			__ticks --;
    256e:	89 85       	ldd	r24, Y+9	; 0x09
    2570:	9a 85       	ldd	r25, Y+10	; 0x0a
    2572:	01 97       	sbiw	r24, 0x01	; 1
    2574:	9a 87       	std	Y+10, r25	; 0x0a
    2576:	89 87       	std	Y+9, r24	; 0x09
		__ticks = 1;
	else if (__tmp > 65535)
	{
		//	__ticks = requested delay in 1/10 ms
		__ticks = (uint16_t) (__ms * 10.0);
		while(__ticks)
    2578:	89 85       	ldd	r24, Y+9	; 0x09
    257a:	9a 85       	ldd	r25, Y+10	; 0x0a
    257c:	89 2b       	or	r24, r25
	_delay_ms(2500);
}
    257e:	69 f7       	brne	.-38     	; 0x255a <ErrorPrint+0xc8>
			__ticks --;
		}
		return;
	}
	else
		__ticks = (uint16_t)__tmp;
    2580:	13 c0       	rjmp	.+38     	; 0x25a8 <ErrorPrint+0x116>
    2582:	6d 81       	ldd	r22, Y+5	; 0x05
    2584:	7e 81       	ldd	r23, Y+6	; 0x06
    2586:	8f 81       	ldd	r24, Y+7	; 0x07
    2588:	98 85       	ldd	r25, Y+8	; 0x08
    258a:	79 d1       	rcall	.+754    	; 0x287e <__fixunssfsi>
    258c:	dc 01       	movw	r26, r24
    258e:	cb 01       	movw	r24, r22
    2590:	9a 87       	std	Y+10, r25	; 0x0a
    2592:	89 87       	std	Y+9, r24	; 0x09
    2594:	89 85       	ldd	r24, Y+9	; 0x09
    2596:	9a 85       	ldd	r25, Y+10	; 0x0a
    2598:	9e 87       	std	Y+14, r25	; 0x0e
    259a:	8d 87       	std	Y+13, r24	; 0x0d
    259c:	8d 85       	ldd	r24, Y+13	; 0x0d
    259e:	9e 85       	ldd	r25, Y+14	; 0x0e
    25a0:	01 97       	sbiw	r24, 0x01	; 1
    25a2:	f1 f7       	brne	.-4      	; 0x25a0 <ErrorPrint+0x10e>
    25a4:	9e 87       	std	Y+14, r25	; 0x0e
    25a6:	8d 87       	std	Y+13, r24	; 0x0d
    25a8:	00 00       	nop
    25aa:	69 96       	adiw	r28, 0x19	; 25
    25ac:	0f b6       	in	r0, 0x3f	; 63
    25ae:	f8 94       	cli
    25b0:	de bf       	out	0x3e, r29	; 62
    25b2:	0f be       	out	0x3f, r0	; 63
    25b4:	cd bf       	out	0x3d, r28	; 61
    25b6:	df 91       	pop	r29
    25b8:	cf 91       	pop	r28
    25ba:	08 95       	ret

000025bc <ColorValidator>:

int ColorValidator(char *p_fullcolor){
    25bc:	cf 93       	push	r28
    25be:	df 93       	push	r29
    25c0:	00 d0       	rcall	.+0      	; 0x25c2 <ColorValidator+0x6>
    25c2:	1f 92       	push	r1
    25c4:	1f 92       	push	r1
    25c6:	cd b7       	in	r28, 0x3d	; 61
    25c8:	de b7       	in	r29, 0x3e	; 62
    25ca:	9d 83       	std	Y+5, r25	; 0x05
    25cc:	8c 83       	std	Y+4, r24	; 0x04
	char cnt;
	for (cnt = 0; cnt < 9; cnt += 3)
    25ce:	19 82       	std	Y+1, r1	; 0x01
    25d0:	14 c0       	rjmp	.+40     	; 0x25fa <ColorValidator+0x3e>
	{
		int colorValue = ValueValidator(p_fullcolor + cnt);
    25d2:	89 81       	ldd	r24, Y+1	; 0x01
    25d4:	88 2f       	mov	r24, r24
    25d6:	90 e0       	ldi	r25, 0x00	; 0
    25d8:	2c 81       	ldd	r18, Y+4	; 0x04
    25da:	3d 81       	ldd	r19, Y+5	; 0x05
    25dc:	82 0f       	add	r24, r18
    25de:	93 1f       	adc	r25, r19
    25e0:	19 d0       	rcall	.+50     	; 0x2614 <ValueValidator>
    25e2:	9b 83       	std	Y+3, r25	; 0x03
    25e4:	8a 83       	std	Y+2, r24	; 0x02
		if (colorValue < 0)
    25e6:	8a 81       	ldd	r24, Y+2	; 0x02
    25e8:	9b 81       	ldd	r25, Y+3	; 0x03
    25ea:	99 23       	and	r25, r25
    25ec:	1c f4       	brge	.+6      	; 0x25f4 <ColorValidator+0x38>
		{
			return colorValue;
    25ee:	8a 81       	ldd	r24, Y+2	; 0x02
    25f0:	9b 81       	ldd	r25, Y+3	; 0x03
    25f2:	08 c0       	rjmp	.+16     	; 0x2604 <ColorValidator+0x48>
	_delay_ms(2500);
}

int ColorValidator(char *p_fullcolor){
	char cnt;
	for (cnt = 0; cnt < 9; cnt += 3)
    25f4:	89 81       	ldd	r24, Y+1	; 0x01
    25f6:	8d 5f       	subi	r24, 0xFD	; 253
    25f8:	89 83       	std	Y+1, r24	; 0x01
    25fa:	89 81       	ldd	r24, Y+1	; 0x01
    25fc:	89 30       	cpi	r24, 0x09	; 9
    25fe:	48 f3       	brcs	.-46     	; 0x25d2 <ColorValidator+0x16>
		if (colorValue < 0)
		{
			return colorValue;
		}
	}
	return 0;
    2600:	80 e0       	ldi	r24, 0x00	; 0
    2602:	90 e0       	ldi	r25, 0x00	; 0
	
}
    2604:	0f 90       	pop	r0
    2606:	0f 90       	pop	r0
    2608:	0f 90       	pop	r0
    260a:	0f 90       	pop	r0
    260c:	0f 90       	pop	r0
    260e:	df 91       	pop	r29
    2610:	cf 91       	pop	r28
    2612:	08 95       	ret

00002614 <ValueValidator>:

int ValueValidator(char *p_color){
    2614:	cf 93       	push	r28
    2616:	df 93       	push	r29
    2618:	00 d0       	rcall	.+0      	; 0x261a <ValueValidator+0x6>
    261a:	1f 92       	push	r1
    261c:	1f 92       	push	r1
    261e:	cd b7       	in	r28, 0x3d	; 61
    2620:	de b7       	in	r29, 0x3e	; 62
    2622:	9d 83       	std	Y+5, r25	; 0x05
    2624:	8c 83       	std	Y+4, r24	; 0x04
	char cnt;
	for (cnt = 0; cnt < 3; cnt++)
    2626:	19 82       	std	Y+1, r1	; 0x01
    2628:	1c c0       	rjmp	.+56     	; 0x2662 <ValueValidator+0x4e>
	{
		if (*(p_color + cnt) < '0' || *(p_color + cnt) > '9')
    262a:	89 81       	ldd	r24, Y+1	; 0x01
    262c:	88 2f       	mov	r24, r24
    262e:	90 e0       	ldi	r25, 0x00	; 0
    2630:	2c 81       	ldd	r18, Y+4	; 0x04
    2632:	3d 81       	ldd	r19, Y+5	; 0x05
    2634:	82 0f       	add	r24, r18
    2636:	93 1f       	adc	r25, r19
    2638:	fc 01       	movw	r30, r24
    263a:	80 81       	ld	r24, Z
    263c:	80 33       	cpi	r24, 0x30	; 48
    263e:	58 f0       	brcs	.+22     	; 0x2656 <ValueValidator+0x42>
    2640:	89 81       	ldd	r24, Y+1	; 0x01
    2642:	88 2f       	mov	r24, r24
    2644:	90 e0       	ldi	r25, 0x00	; 0
    2646:	2c 81       	ldd	r18, Y+4	; 0x04
    2648:	3d 81       	ldd	r19, Y+5	; 0x05
    264a:	82 0f       	add	r24, r18
    264c:	93 1f       	adc	r25, r19
    264e:	fc 01       	movw	r30, r24
    2650:	80 81       	ld	r24, Z
    2652:	8a 33       	cpi	r24, 0x3A	; 58
    2654:	18 f0       	brcs	.+6      	; 0x265c <ValueValidator+0x48>
		{
			return -1; // input er ikke et tal
    2656:	8f ef       	ldi	r24, 0xFF	; 255
    2658:	9f ef       	ldi	r25, 0xFF	; 255
    265a:	41 c0       	rjmp	.+130    	; 0x26de <ValueValidator+0xca>
	
}

int ValueValidator(char *p_color){
	char cnt;
	for (cnt = 0; cnt < 3; cnt++)
    265c:	89 81       	ldd	r24, Y+1	; 0x01
    265e:	8f 5f       	subi	r24, 0xFF	; 255
    2660:	89 83       	std	Y+1, r24	; 0x01
    2662:	89 81       	ldd	r24, Y+1	; 0x01
    2664:	83 30       	cpi	r24, 0x03	; 3
    2666:	08 f3       	brcs	.-62     	; 0x262a <ValueValidator+0x16>
		{
			return -1; // input er ikke et tal
		}
	}
	
	int number = (((*p_color)-48) * 100) + (((*(p_color+1))-48) * 10) + ((*(p_color+2))-48); //tal vrdien for en farve ascii char til int
    2668:	8c 81       	ldd	r24, Y+4	; 0x04
    266a:	9d 81       	ldd	r25, Y+5	; 0x05
    266c:	fc 01       	movw	r30, r24
    266e:	80 81       	ld	r24, Z
    2670:	88 2f       	mov	r24, r24
    2672:	90 e0       	ldi	r25, 0x00	; 0
    2674:	c0 97       	sbiw	r24, 0x30	; 48
    2676:	44 e6       	ldi	r20, 0x64	; 100
    2678:	48 9f       	mul	r20, r24
    267a:	90 01       	movw	r18, r0
    267c:	49 9f       	mul	r20, r25
    267e:	30 0d       	add	r19, r0
    2680:	11 24       	eor	r1, r1
    2682:	8c 81       	ldd	r24, Y+4	; 0x04
    2684:	9d 81       	ldd	r25, Y+5	; 0x05
    2686:	01 96       	adiw	r24, 0x01	; 1
    2688:	fc 01       	movw	r30, r24
    268a:	80 81       	ld	r24, Z
    268c:	88 2f       	mov	r24, r24
    268e:	90 e0       	ldi	r25, 0x00	; 0
    2690:	c0 97       	sbiw	r24, 0x30	; 48
    2692:	88 0f       	add	r24, r24
    2694:	99 1f       	adc	r25, r25
    2696:	ac 01       	movw	r20, r24
    2698:	44 0f       	add	r20, r20
    269a:	55 1f       	adc	r21, r21
    269c:	44 0f       	add	r20, r20
    269e:	55 1f       	adc	r21, r21
    26a0:	84 0f       	add	r24, r20
    26a2:	95 1f       	adc	r25, r21
    26a4:	28 0f       	add	r18, r24
    26a6:	39 1f       	adc	r19, r25
    26a8:	8c 81       	ldd	r24, Y+4	; 0x04
    26aa:	9d 81       	ldd	r25, Y+5	; 0x05
    26ac:	02 96       	adiw	r24, 0x02	; 2
    26ae:	fc 01       	movw	r30, r24
    26b0:	80 81       	ld	r24, Z
    26b2:	88 2f       	mov	r24, r24
    26b4:	90 e0       	ldi	r25, 0x00	; 0
    26b6:	c0 97       	sbiw	r24, 0x30	; 48
    26b8:	82 0f       	add	r24, r18
    26ba:	93 1f       	adc	r25, r19
    26bc:	9b 83       	std	Y+3, r25	; 0x03
    26be:	8a 83       	std	Y+2, r24	; 0x02
	
	if (number > 255 || number < 0)
    26c0:	8a 81       	ldd	r24, Y+2	; 0x02
    26c2:	9b 81       	ldd	r25, Y+3	; 0x03
    26c4:	8f 3f       	cpi	r24, 0xFF	; 255
    26c6:	91 05       	cpc	r25, r1
    26c8:	09 f0       	breq	.+2      	; 0x26cc <ValueValidator+0xb8>
    26ca:	24 f4       	brge	.+8      	; 0x26d4 <ValueValidator+0xc0>
    26cc:	8a 81       	ldd	r24, Y+2	; 0x02
    26ce:	9b 81       	ldd	r25, Y+3	; 0x03
    26d0:	99 23       	and	r25, r25
    26d2:	1c f4       	brge	.+6      	; 0x26da <ValueValidator+0xc6>
	{
		return -2; // input vrdien er for hj eller lav
    26d4:	8e ef       	ldi	r24, 0xFE	; 254
    26d6:	9f ef       	ldi	r25, 0xFF	; 255
    26d8:	02 c0       	rjmp	.+4      	; 0x26de <ValueValidator+0xca>
	}
	return number;
    26da:	8a 81       	ldd	r24, Y+2	; 0x02
    26dc:	9b 81       	ldd	r25, Y+3	; 0x03
}
    26de:	0f 90       	pop	r0
    26e0:	0f 90       	pop	r0
    26e2:	0f 90       	pop	r0
    26e4:	0f 90       	pop	r0
    26e6:	0f 90       	pop	r0
    26e8:	df 91       	pop	r29
    26ea:	cf 91       	pop	r28
    26ec:	08 95       	ret

000026ee <SendData>:

void SendData(unsigned char color[9]){
    26ee:	cf 93       	push	r28
    26f0:	df 93       	push	r29
    26f2:	00 d0       	rcall	.+0      	; 0x26f4 <SendData+0x6>
    26f4:	1f 92       	push	r1
    26f6:	cd b7       	in	r28, 0x3d	; 61
    26f8:	de b7       	in	r29, 0x3e	; 62
    26fa:	9c 83       	std	Y+4, r25	; 0x04
    26fc:	8b 83       	std	Y+3, r24	; 0x03
	char startbyte = 'S';
    26fe:	83 e5       	ldi	r24, 0x53	; 83
    2700:	8a 83       	std	Y+2, r24	; 0x02
	
	USART_Transmit(startbyte);
    2702:	8a 81       	ldd	r24, Y+2	; 0x02
    2704:	1a d0       	rcall	.+52     	; 0x273a <USART_Transmit>
	for (char cnt = 0; cnt < 9; cnt++)
    2706:	19 82       	std	Y+1, r1	; 0x01
    2708:	0d c0       	rjmp	.+26     	; 0x2724 <SendData+0x36>
	{
		USART_Transmit(color[cnt]);
    270a:	89 81       	ldd	r24, Y+1	; 0x01
    270c:	88 2f       	mov	r24, r24
    270e:	90 e0       	ldi	r25, 0x00	; 0
    2710:	2b 81       	ldd	r18, Y+3	; 0x03
    2712:	3c 81       	ldd	r19, Y+4	; 0x04
    2714:	82 0f       	add	r24, r18
    2716:	93 1f       	adc	r25, r19
    2718:	fc 01       	movw	r30, r24
    271a:	80 81       	ld	r24, Z
    271c:	0e d0       	rcall	.+28     	; 0x273a <USART_Transmit>

void SendData(unsigned char color[9]){
	char startbyte = 'S';
	
	USART_Transmit(startbyte);
	for (char cnt = 0; cnt < 9; cnt++)
    271e:	89 81       	ldd	r24, Y+1	; 0x01
    2720:	8f 5f       	subi	r24, 0xFF	; 255
    2722:	89 83       	std	Y+1, r24	; 0x01
    2724:	89 81       	ldd	r24, Y+1	; 0x01
    2726:	89 30       	cpi	r24, 0x09	; 9
    2728:	80 f3       	brcs	.-32     	; 0x270a <SendData+0x1c>
	{
		USART_Transmit(color[cnt]);
	}
    272a:	00 00       	nop
    272c:	0f 90       	pop	r0
    272e:	0f 90       	pop	r0
    2730:	0f 90       	pop	r0
    2732:	0f 90       	pop	r0
    2734:	df 91       	pop	r29
    2736:	cf 91       	pop	r28
    2738:	08 95       	ret

0000273a <USART_Transmit>:
	//while (	!(UCSR0A & (1<<RXC0)));			// Wait for data to be received (22.10.2 s. 219)
	//return UDR0;							// Get and return received data from buffer
//}

void USART_Transmit(unsigned char data)
{
    273a:	cf 93       	push	r28
    273c:	df 93       	push	r29
    273e:	1f 92       	push	r1
    2740:	cd b7       	in	r28, 0x3d	; 61
    2742:	de b7       	in	r29, 0x3e	; 62
    2744:	89 83       	std	Y+1, r24	; 0x01
	while (	!(UCSR0A & (1<<UDRE0)));		// Wait for buffer to be ready to send (22.10.2 s. 219)
    2746:	00 00       	nop
    2748:	80 ec       	ldi	r24, 0xC0	; 192
    274a:	90 e0       	ldi	r25, 0x00	; 0
    274c:	fc 01       	movw	r30, r24
    274e:	80 81       	ld	r24, Z
    2750:	88 2f       	mov	r24, r24
    2752:	90 e0       	ldi	r25, 0x00	; 0
    2754:	80 72       	andi	r24, 0x20	; 32
    2756:	99 27       	eor	r25, r25
    2758:	89 2b       	or	r24, r25
    275a:	b1 f3       	breq	.-20     	; 0x2748 <USART_Transmit+0xe>
	UDR0 = data;							// Put data into buffer, sends the data
    275c:	86 ec       	ldi	r24, 0xC6	; 198
    275e:	90 e0       	ldi	r25, 0x00	; 0
    2760:	29 81       	ldd	r18, Y+1	; 0x01
    2762:	fc 01       	movw	r30, r24
    2764:	20 83       	st	Z, r18
}
    2766:	00 00       	nop
    2768:	0f 90       	pop	r0
    276a:	df 91       	pop	r29
    276c:	cf 91       	pop	r28
    276e:	08 95       	ret

00002770 <USART_Init>:

void USART_Init()
{
    2770:	cf 93       	push	r28
    2772:	df 93       	push	r29
    2774:	cd b7       	in	r28, 0x3d	; 61
    2776:	de b7       	in	r29, 0x3e	; 62
	UBRR0H = UBRRH_VALUE;					// set UART0 baud rate with setbaud-library
    2778:	85 ec       	ldi	r24, 0xC5	; 197
    277a:	90 e0       	ldi	r25, 0x00	; 0
    277c:	fc 01       	movw	r30, r24
    277e:	10 82       	st	Z, r1
	UBRR0L = UBRRL_VALUE;
    2780:	84 ec       	ldi	r24, 0xC4	; 196
    2782:	90 e0       	ldi	r25, 0x00	; 0
    2784:	27 e6       	ldi	r18, 0x67	; 103
    2786:	fc 01       	movw	r30, r24
    2788:	20 83       	st	Z, r18

	UCSR0B = (1<<RXEN0) | (1<<TXEN0);		// Enable Receiver and Transmitter (22.10.3, s. 220)
    278a:	81 ec       	ldi	r24, 0xC1	; 193
    278c:	90 e0       	ldi	r25, 0x00	; 0
    278e:	28 e1       	ldi	r18, 0x18	; 24
    2790:	fc 01       	movw	r30, r24
    2792:	20 83       	st	Z, r18
	UCSR0C = (1<<UCSZ01)|(1<<UCSZ00);		// Set frame format: 8 bit data, 1 stop bit (22.10.4 s. 221)
    2794:	82 ec       	ldi	r24, 0xC2	; 194
    2796:	90 e0       	ldi	r25, 0x00	; 0
    2798:	26 e0       	ldi	r18, 0x06	; 6
    279a:	fc 01       	movw	r30, r24
    279c:	20 83       	st	Z, r18
}
    279e:	00 00       	nop
    27a0:	df 91       	pop	r29
    27a2:	cf 91       	pop	r28
    27a4:	08 95       	ret

000027a6 <__cmpsf2>:
    27a6:	97 d0       	rcall	.+302    	; 0x28d6 <__fp_cmp>
    27a8:	08 f4       	brcc	.+2      	; 0x27ac <__cmpsf2+0x6>
    27aa:	81 e0       	ldi	r24, 0x01	; 1
    27ac:	08 95       	ret

000027ae <__divsf3>:
    27ae:	0c d0       	rcall	.+24     	; 0x27c8 <__divsf3x>
    27b0:	cd c0       	rjmp	.+410    	; 0x294c <__fp_round>
    27b2:	c5 d0       	rcall	.+394    	; 0x293e <__fp_pscB>
    27b4:	40 f0       	brcs	.+16     	; 0x27c6 <__divsf3+0x18>
    27b6:	bc d0       	rcall	.+376    	; 0x2930 <__fp_pscA>
    27b8:	30 f0       	brcs	.+12     	; 0x27c6 <__divsf3+0x18>
    27ba:	21 f4       	brne	.+8      	; 0x27c4 <__divsf3+0x16>
    27bc:	5f 3f       	cpi	r21, 0xFF	; 255
    27be:	19 f0       	breq	.+6      	; 0x27c6 <__divsf3+0x18>
    27c0:	ae c0       	rjmp	.+348    	; 0x291e <__fp_inf>
    27c2:	51 11       	cpse	r21, r1
    27c4:	f7 c0       	rjmp	.+494    	; 0x29b4 <__fp_szero>
    27c6:	b1 c0       	rjmp	.+354    	; 0x292a <__fp_nan>

000027c8 <__divsf3x>:
    27c8:	d2 d0       	rcall	.+420    	; 0x296e <__fp_split3>
    27ca:	98 f3       	brcs	.-26     	; 0x27b2 <__divsf3+0x4>

000027cc <__divsf3_pse>:
    27cc:	99 23       	and	r25, r25
    27ce:	c9 f3       	breq	.-14     	; 0x27c2 <__divsf3+0x14>
    27d0:	55 23       	and	r21, r21
    27d2:	b1 f3       	breq	.-20     	; 0x27c0 <__divsf3+0x12>
    27d4:	95 1b       	sub	r25, r21
    27d6:	55 0b       	sbc	r21, r21
    27d8:	bb 27       	eor	r27, r27
    27da:	aa 27       	eor	r26, r26
    27dc:	62 17       	cp	r22, r18
    27de:	73 07       	cpc	r23, r19
    27e0:	84 07       	cpc	r24, r20
    27e2:	38 f0       	brcs	.+14     	; 0x27f2 <__divsf3_pse+0x26>
    27e4:	9f 5f       	subi	r25, 0xFF	; 255
    27e6:	5f 4f       	sbci	r21, 0xFF	; 255
    27e8:	22 0f       	add	r18, r18
    27ea:	33 1f       	adc	r19, r19
    27ec:	44 1f       	adc	r20, r20
    27ee:	aa 1f       	adc	r26, r26
    27f0:	a9 f3       	breq	.-22     	; 0x27dc <__divsf3_pse+0x10>
    27f2:	33 d0       	rcall	.+102    	; 0x285a <__divsf3_pse+0x8e>
    27f4:	0e 2e       	mov	r0, r30
    27f6:	3a f0       	brmi	.+14     	; 0x2806 <__divsf3_pse+0x3a>
    27f8:	e0 e8       	ldi	r30, 0x80	; 128
    27fa:	30 d0       	rcall	.+96     	; 0x285c <__divsf3_pse+0x90>
    27fc:	91 50       	subi	r25, 0x01	; 1
    27fe:	50 40       	sbci	r21, 0x00	; 0
    2800:	e6 95       	lsr	r30
    2802:	00 1c       	adc	r0, r0
    2804:	ca f7       	brpl	.-14     	; 0x27f8 <__divsf3_pse+0x2c>
    2806:	29 d0       	rcall	.+82     	; 0x285a <__divsf3_pse+0x8e>
    2808:	fe 2f       	mov	r31, r30
    280a:	27 d0       	rcall	.+78     	; 0x285a <__divsf3_pse+0x8e>
    280c:	66 0f       	add	r22, r22
    280e:	77 1f       	adc	r23, r23
    2810:	88 1f       	adc	r24, r24
    2812:	bb 1f       	adc	r27, r27
    2814:	26 17       	cp	r18, r22
    2816:	37 07       	cpc	r19, r23
    2818:	48 07       	cpc	r20, r24
    281a:	ab 07       	cpc	r26, r27
    281c:	b0 e8       	ldi	r27, 0x80	; 128
    281e:	09 f0       	breq	.+2      	; 0x2822 <__divsf3_pse+0x56>
    2820:	bb 0b       	sbc	r27, r27
    2822:	80 2d       	mov	r24, r0
    2824:	bf 01       	movw	r22, r30
    2826:	ff 27       	eor	r31, r31
    2828:	93 58       	subi	r25, 0x83	; 131
    282a:	5f 4f       	sbci	r21, 0xFF	; 255
    282c:	2a f0       	brmi	.+10     	; 0x2838 <__divsf3_pse+0x6c>
    282e:	9e 3f       	cpi	r25, 0xFE	; 254
    2830:	51 05       	cpc	r21, r1
    2832:	68 f0       	brcs	.+26     	; 0x284e <__divsf3_pse+0x82>
    2834:	74 c0       	rjmp	.+232    	; 0x291e <__fp_inf>
    2836:	be c0       	rjmp	.+380    	; 0x29b4 <__fp_szero>
    2838:	5f 3f       	cpi	r21, 0xFF	; 255
    283a:	ec f3       	brlt	.-6      	; 0x2836 <__divsf3_pse+0x6a>
    283c:	98 3e       	cpi	r25, 0xE8	; 232
    283e:	dc f3       	brlt	.-10     	; 0x2836 <__divsf3_pse+0x6a>
    2840:	86 95       	lsr	r24
    2842:	77 95       	ror	r23
    2844:	67 95       	ror	r22
    2846:	b7 95       	ror	r27
    2848:	f7 95       	ror	r31
    284a:	9f 5f       	subi	r25, 0xFF	; 255
    284c:	c9 f7       	brne	.-14     	; 0x2840 <__divsf3_pse+0x74>
    284e:	88 0f       	add	r24, r24
    2850:	91 1d       	adc	r25, r1
    2852:	96 95       	lsr	r25
    2854:	87 95       	ror	r24
    2856:	97 f9       	bld	r25, 7
    2858:	08 95       	ret
    285a:	e1 e0       	ldi	r30, 0x01	; 1
    285c:	66 0f       	add	r22, r22
    285e:	77 1f       	adc	r23, r23
    2860:	88 1f       	adc	r24, r24
    2862:	bb 1f       	adc	r27, r27
    2864:	62 17       	cp	r22, r18
    2866:	73 07       	cpc	r23, r19
    2868:	84 07       	cpc	r24, r20
    286a:	ba 07       	cpc	r27, r26
    286c:	20 f0       	brcs	.+8      	; 0x2876 <__divsf3_pse+0xaa>
    286e:	62 1b       	sub	r22, r18
    2870:	73 0b       	sbc	r23, r19
    2872:	84 0b       	sbc	r24, r20
    2874:	ba 0b       	sbc	r27, r26
    2876:	ee 1f       	adc	r30, r30
    2878:	88 f7       	brcc	.-30     	; 0x285c <__divsf3_pse+0x90>
    287a:	e0 95       	com	r30
    287c:	08 95       	ret

0000287e <__fixunssfsi>:
    287e:	7f d0       	rcall	.+254    	; 0x297e <__fp_splitA>
    2880:	88 f0       	brcs	.+34     	; 0x28a4 <__fixunssfsi+0x26>
    2882:	9f 57       	subi	r25, 0x7F	; 127
    2884:	90 f0       	brcs	.+36     	; 0x28aa <__fixunssfsi+0x2c>
    2886:	b9 2f       	mov	r27, r25
    2888:	99 27       	eor	r25, r25
    288a:	b7 51       	subi	r27, 0x17	; 23
    288c:	a0 f0       	brcs	.+40     	; 0x28b6 <__fixunssfsi+0x38>
    288e:	d1 f0       	breq	.+52     	; 0x28c4 <__fixunssfsi+0x46>
    2890:	66 0f       	add	r22, r22
    2892:	77 1f       	adc	r23, r23
    2894:	88 1f       	adc	r24, r24
    2896:	99 1f       	adc	r25, r25
    2898:	1a f0       	brmi	.+6      	; 0x28a0 <__fixunssfsi+0x22>
    289a:	ba 95       	dec	r27
    289c:	c9 f7       	brne	.-14     	; 0x2890 <__fixunssfsi+0x12>
    289e:	12 c0       	rjmp	.+36     	; 0x28c4 <__fixunssfsi+0x46>
    28a0:	b1 30       	cpi	r27, 0x01	; 1
    28a2:	81 f0       	breq	.+32     	; 0x28c4 <__fixunssfsi+0x46>
    28a4:	86 d0       	rcall	.+268    	; 0x29b2 <__fp_zero>
    28a6:	b1 e0       	ldi	r27, 0x01	; 1
    28a8:	08 95       	ret
    28aa:	83 c0       	rjmp	.+262    	; 0x29b2 <__fp_zero>
    28ac:	67 2f       	mov	r22, r23
    28ae:	78 2f       	mov	r23, r24
    28b0:	88 27       	eor	r24, r24
    28b2:	b8 5f       	subi	r27, 0xF8	; 248
    28b4:	39 f0       	breq	.+14     	; 0x28c4 <__fixunssfsi+0x46>
    28b6:	b9 3f       	cpi	r27, 0xF9	; 249
    28b8:	cc f3       	brlt	.-14     	; 0x28ac <__fixunssfsi+0x2e>
    28ba:	86 95       	lsr	r24
    28bc:	77 95       	ror	r23
    28be:	67 95       	ror	r22
    28c0:	b3 95       	inc	r27
    28c2:	d9 f7       	brne	.-10     	; 0x28ba <__fixunssfsi+0x3c>
    28c4:	3e f4       	brtc	.+14     	; 0x28d4 <__fixunssfsi+0x56>
    28c6:	90 95       	com	r25
    28c8:	80 95       	com	r24
    28ca:	70 95       	com	r23
    28cc:	61 95       	neg	r22
    28ce:	7f 4f       	sbci	r23, 0xFF	; 255
    28d0:	8f 4f       	sbci	r24, 0xFF	; 255
    28d2:	9f 4f       	sbci	r25, 0xFF	; 255
    28d4:	08 95       	ret

000028d6 <__fp_cmp>:
    28d6:	99 0f       	add	r25, r25
    28d8:	00 08       	sbc	r0, r0
    28da:	55 0f       	add	r21, r21
    28dc:	aa 0b       	sbc	r26, r26
    28de:	e0 e8       	ldi	r30, 0x80	; 128
    28e0:	fe ef       	ldi	r31, 0xFE	; 254
    28e2:	16 16       	cp	r1, r22
    28e4:	17 06       	cpc	r1, r23
    28e6:	e8 07       	cpc	r30, r24
    28e8:	f9 07       	cpc	r31, r25
    28ea:	c0 f0       	brcs	.+48     	; 0x291c <__fp_cmp+0x46>
    28ec:	12 16       	cp	r1, r18
    28ee:	13 06       	cpc	r1, r19
    28f0:	e4 07       	cpc	r30, r20
    28f2:	f5 07       	cpc	r31, r21
    28f4:	98 f0       	brcs	.+38     	; 0x291c <__fp_cmp+0x46>
    28f6:	62 1b       	sub	r22, r18
    28f8:	73 0b       	sbc	r23, r19
    28fa:	84 0b       	sbc	r24, r20
    28fc:	95 0b       	sbc	r25, r21
    28fe:	39 f4       	brne	.+14     	; 0x290e <__fp_cmp+0x38>
    2900:	0a 26       	eor	r0, r26
    2902:	61 f0       	breq	.+24     	; 0x291c <__fp_cmp+0x46>
    2904:	23 2b       	or	r18, r19
    2906:	24 2b       	or	r18, r20
    2908:	25 2b       	or	r18, r21
    290a:	21 f4       	brne	.+8      	; 0x2914 <__fp_cmp+0x3e>
    290c:	08 95       	ret
    290e:	0a 26       	eor	r0, r26
    2910:	09 f4       	brne	.+2      	; 0x2914 <__fp_cmp+0x3e>
    2912:	a1 40       	sbci	r26, 0x01	; 1
    2914:	a6 95       	lsr	r26
    2916:	8f ef       	ldi	r24, 0xFF	; 255
    2918:	81 1d       	adc	r24, r1
    291a:	81 1d       	adc	r24, r1
    291c:	08 95       	ret

0000291e <__fp_inf>:
    291e:	97 f9       	bld	r25, 7
    2920:	9f 67       	ori	r25, 0x7F	; 127
    2922:	80 e8       	ldi	r24, 0x80	; 128
    2924:	70 e0       	ldi	r23, 0x00	; 0
    2926:	60 e0       	ldi	r22, 0x00	; 0
    2928:	08 95       	ret

0000292a <__fp_nan>:
    292a:	9f ef       	ldi	r25, 0xFF	; 255
    292c:	80 ec       	ldi	r24, 0xC0	; 192
    292e:	08 95       	ret

00002930 <__fp_pscA>:
    2930:	00 24       	eor	r0, r0
    2932:	0a 94       	dec	r0
    2934:	16 16       	cp	r1, r22
    2936:	17 06       	cpc	r1, r23
    2938:	18 06       	cpc	r1, r24
    293a:	09 06       	cpc	r0, r25
    293c:	08 95       	ret

0000293e <__fp_pscB>:
    293e:	00 24       	eor	r0, r0
    2940:	0a 94       	dec	r0
    2942:	12 16       	cp	r1, r18
    2944:	13 06       	cpc	r1, r19
    2946:	14 06       	cpc	r1, r20
    2948:	05 06       	cpc	r0, r21
    294a:	08 95       	ret

0000294c <__fp_round>:
    294c:	09 2e       	mov	r0, r25
    294e:	03 94       	inc	r0
    2950:	00 0c       	add	r0, r0
    2952:	11 f4       	brne	.+4      	; 0x2958 <__fp_round+0xc>
    2954:	88 23       	and	r24, r24
    2956:	52 f0       	brmi	.+20     	; 0x296c <__fp_round+0x20>
    2958:	bb 0f       	add	r27, r27
    295a:	40 f4       	brcc	.+16     	; 0x296c <__fp_round+0x20>
    295c:	bf 2b       	or	r27, r31
    295e:	11 f4       	brne	.+4      	; 0x2964 <__fp_round+0x18>
    2960:	60 ff       	sbrs	r22, 0
    2962:	04 c0       	rjmp	.+8      	; 0x296c <__fp_round+0x20>
    2964:	6f 5f       	subi	r22, 0xFF	; 255
    2966:	7f 4f       	sbci	r23, 0xFF	; 255
    2968:	8f 4f       	sbci	r24, 0xFF	; 255
    296a:	9f 4f       	sbci	r25, 0xFF	; 255
    296c:	08 95       	ret

0000296e <__fp_split3>:
    296e:	57 fd       	sbrc	r21, 7
    2970:	90 58       	subi	r25, 0x80	; 128
    2972:	44 0f       	add	r20, r20
    2974:	55 1f       	adc	r21, r21
    2976:	59 f0       	breq	.+22     	; 0x298e <__fp_splitA+0x10>
    2978:	5f 3f       	cpi	r21, 0xFF	; 255
    297a:	71 f0       	breq	.+28     	; 0x2998 <__fp_splitA+0x1a>
    297c:	47 95       	ror	r20

0000297e <__fp_splitA>:
    297e:	88 0f       	add	r24, r24
    2980:	97 fb       	bst	r25, 7
    2982:	99 1f       	adc	r25, r25
    2984:	61 f0       	breq	.+24     	; 0x299e <__fp_splitA+0x20>
    2986:	9f 3f       	cpi	r25, 0xFF	; 255
    2988:	79 f0       	breq	.+30     	; 0x29a8 <__fp_splitA+0x2a>
    298a:	87 95       	ror	r24
    298c:	08 95       	ret
    298e:	12 16       	cp	r1, r18
    2990:	13 06       	cpc	r1, r19
    2992:	14 06       	cpc	r1, r20
    2994:	55 1f       	adc	r21, r21
    2996:	f2 cf       	rjmp	.-28     	; 0x297c <__fp_split3+0xe>
    2998:	46 95       	lsr	r20
    299a:	f1 df       	rcall	.-30     	; 0x297e <__fp_splitA>
    299c:	08 c0       	rjmp	.+16     	; 0x29ae <__fp_splitA+0x30>
    299e:	16 16       	cp	r1, r22
    29a0:	17 06       	cpc	r1, r23
    29a2:	18 06       	cpc	r1, r24
    29a4:	99 1f       	adc	r25, r25
    29a6:	f1 cf       	rjmp	.-30     	; 0x298a <__fp_splitA+0xc>
    29a8:	86 95       	lsr	r24
    29aa:	71 05       	cpc	r23, r1
    29ac:	61 05       	cpc	r22, r1
    29ae:	08 94       	sec
    29b0:	08 95       	ret

000029b2 <__fp_zero>:
    29b2:	e8 94       	clt

000029b4 <__fp_szero>:
    29b4:	bb 27       	eor	r27, r27
    29b6:	66 27       	eor	r22, r22
    29b8:	77 27       	eor	r23, r23
    29ba:	cb 01       	movw	r24, r22
    29bc:	97 f9       	bld	r25, 7
    29be:	08 95       	ret

000029c0 <__gesf2>:
    29c0:	8a df       	rcall	.-236    	; 0x28d6 <__fp_cmp>
    29c2:	08 f4       	brcc	.+2      	; 0x29c6 <__gesf2+0x6>
    29c4:	8f ef       	ldi	r24, 0xFF	; 255
    29c6:	08 95       	ret

000029c8 <__mulsf3>:
    29c8:	0b d0       	rcall	.+22     	; 0x29e0 <__mulsf3x>
    29ca:	c0 cf       	rjmp	.-128    	; 0x294c <__fp_round>
    29cc:	b1 df       	rcall	.-158    	; 0x2930 <__fp_pscA>
    29ce:	28 f0       	brcs	.+10     	; 0x29da <__mulsf3+0x12>
    29d0:	b6 df       	rcall	.-148    	; 0x293e <__fp_pscB>
    29d2:	18 f0       	brcs	.+6      	; 0x29da <__mulsf3+0x12>
    29d4:	95 23       	and	r25, r21
    29d6:	09 f0       	breq	.+2      	; 0x29da <__mulsf3+0x12>
    29d8:	a2 cf       	rjmp	.-188    	; 0x291e <__fp_inf>
    29da:	a7 cf       	rjmp	.-178    	; 0x292a <__fp_nan>
    29dc:	11 24       	eor	r1, r1
    29de:	ea cf       	rjmp	.-44     	; 0x29b4 <__fp_szero>

000029e0 <__mulsf3x>:
    29e0:	c6 df       	rcall	.-116    	; 0x296e <__fp_split3>
    29e2:	a0 f3       	brcs	.-24     	; 0x29cc <__mulsf3+0x4>

000029e4 <__mulsf3_pse>:
    29e4:	95 9f       	mul	r25, r21
    29e6:	d1 f3       	breq	.-12     	; 0x29dc <__mulsf3+0x14>
    29e8:	95 0f       	add	r25, r21
    29ea:	50 e0       	ldi	r21, 0x00	; 0
    29ec:	55 1f       	adc	r21, r21
    29ee:	62 9f       	mul	r22, r18
    29f0:	f0 01       	movw	r30, r0
    29f2:	72 9f       	mul	r23, r18
    29f4:	bb 27       	eor	r27, r27
    29f6:	f0 0d       	add	r31, r0
    29f8:	b1 1d       	adc	r27, r1
    29fa:	63 9f       	mul	r22, r19
    29fc:	aa 27       	eor	r26, r26
    29fe:	f0 0d       	add	r31, r0
    2a00:	b1 1d       	adc	r27, r1
    2a02:	aa 1f       	adc	r26, r26
    2a04:	64 9f       	mul	r22, r20
    2a06:	66 27       	eor	r22, r22
    2a08:	b0 0d       	add	r27, r0
    2a0a:	a1 1d       	adc	r26, r1
    2a0c:	66 1f       	adc	r22, r22
    2a0e:	82 9f       	mul	r24, r18
    2a10:	22 27       	eor	r18, r18
    2a12:	b0 0d       	add	r27, r0
    2a14:	a1 1d       	adc	r26, r1
    2a16:	62 1f       	adc	r22, r18
    2a18:	73 9f       	mul	r23, r19
    2a1a:	b0 0d       	add	r27, r0
    2a1c:	a1 1d       	adc	r26, r1
    2a1e:	62 1f       	adc	r22, r18
    2a20:	83 9f       	mul	r24, r19
    2a22:	a0 0d       	add	r26, r0
    2a24:	61 1d       	adc	r22, r1
    2a26:	22 1f       	adc	r18, r18
    2a28:	74 9f       	mul	r23, r20
    2a2a:	33 27       	eor	r19, r19
    2a2c:	a0 0d       	add	r26, r0
    2a2e:	61 1d       	adc	r22, r1
    2a30:	23 1f       	adc	r18, r19
    2a32:	84 9f       	mul	r24, r20
    2a34:	60 0d       	add	r22, r0
    2a36:	21 1d       	adc	r18, r1
    2a38:	82 2f       	mov	r24, r18
    2a3a:	76 2f       	mov	r23, r22
    2a3c:	6a 2f       	mov	r22, r26
    2a3e:	11 24       	eor	r1, r1
    2a40:	9f 57       	subi	r25, 0x7F	; 127
    2a42:	50 40       	sbci	r21, 0x00	; 0
    2a44:	8a f0       	brmi	.+34     	; 0x2a68 <__mulsf3_pse+0x84>
    2a46:	e1 f0       	breq	.+56     	; 0x2a80 <__mulsf3_pse+0x9c>
    2a48:	88 23       	and	r24, r24
    2a4a:	4a f0       	brmi	.+18     	; 0x2a5e <__mulsf3_pse+0x7a>
    2a4c:	ee 0f       	add	r30, r30
    2a4e:	ff 1f       	adc	r31, r31
    2a50:	bb 1f       	adc	r27, r27
    2a52:	66 1f       	adc	r22, r22
    2a54:	77 1f       	adc	r23, r23
    2a56:	88 1f       	adc	r24, r24
    2a58:	91 50       	subi	r25, 0x01	; 1
    2a5a:	50 40       	sbci	r21, 0x00	; 0
    2a5c:	a9 f7       	brne	.-22     	; 0x2a48 <__mulsf3_pse+0x64>
    2a5e:	9e 3f       	cpi	r25, 0xFE	; 254
    2a60:	51 05       	cpc	r21, r1
    2a62:	70 f0       	brcs	.+28     	; 0x2a80 <__mulsf3_pse+0x9c>
    2a64:	5c cf       	rjmp	.-328    	; 0x291e <__fp_inf>
    2a66:	a6 cf       	rjmp	.-180    	; 0x29b4 <__fp_szero>
    2a68:	5f 3f       	cpi	r21, 0xFF	; 255
    2a6a:	ec f3       	brlt	.-6      	; 0x2a66 <__mulsf3_pse+0x82>
    2a6c:	98 3e       	cpi	r25, 0xE8	; 232
    2a6e:	dc f3       	brlt	.-10     	; 0x2a66 <__mulsf3_pse+0x82>
    2a70:	86 95       	lsr	r24
    2a72:	77 95       	ror	r23
    2a74:	67 95       	ror	r22
    2a76:	b7 95       	ror	r27
    2a78:	f7 95       	ror	r31
    2a7a:	e7 95       	ror	r30
    2a7c:	9f 5f       	subi	r25, 0xFF	; 255
    2a7e:	c1 f7       	brne	.-16     	; 0x2a70 <__mulsf3_pse+0x8c>
    2a80:	fe 2b       	or	r31, r30
    2a82:	88 0f       	add	r24, r24
    2a84:	91 1d       	adc	r25, r1
    2a86:	96 95       	lsr	r25
    2a88:	87 95       	ror	r24
    2a8a:	97 f9       	bld	r25, 7
    2a8c:	08 95       	ret

00002a8e <__tablejump2__>:
    2a8e:	ee 0f       	add	r30, r30
    2a90:	ff 1f       	adc	r31, r31
    2a92:	88 1f       	adc	r24, r24
    2a94:	8b bf       	out	0x3b, r24	; 59
    2a96:	07 90       	elpm	r0, Z+
    2a98:	f6 91       	elpm	r31, Z
    2a9a:	e0 2d       	mov	r30, r0
    2a9c:	19 94       	eijmp

00002a9e <itoa>:
    2a9e:	45 32       	cpi	r20, 0x25	; 37
    2aa0:	51 05       	cpc	r21, r1
    2aa2:	18 f4       	brcc	.+6      	; 0x2aaa <itoa+0xc>
    2aa4:	42 30       	cpi	r20, 0x02	; 2
    2aa6:	08 f0       	brcs	.+2      	; 0x2aaa <itoa+0xc>
    2aa8:	04 c0       	rjmp	.+8      	; 0x2ab2 <__itoa_ncheck>
    2aaa:	fb 01       	movw	r30, r22
    2aac:	10 82       	st	Z, r1
    2aae:	cb 01       	movw	r24, r22
    2ab0:	08 95       	ret

00002ab2 <__itoa_ncheck>:
    2ab2:	bb 27       	eor	r27, r27
    2ab4:	4a 30       	cpi	r20, 0x0A	; 10
    2ab6:	31 f4       	brne	.+12     	; 0x2ac4 <__itoa_ncheck+0x12>
    2ab8:	99 23       	and	r25, r25
    2aba:	22 f4       	brpl	.+8      	; 0x2ac4 <__itoa_ncheck+0x12>
    2abc:	bd e2       	ldi	r27, 0x2D	; 45
    2abe:	90 95       	com	r25
    2ac0:	81 95       	neg	r24
    2ac2:	9f 4f       	sbci	r25, 0xFF	; 255
    2ac4:	01 c0       	rjmp	.+2      	; 0x2ac8 <__utoa_common>

00002ac6 <__utoa_ncheck>:
    2ac6:	bb 27       	eor	r27, r27

00002ac8 <__utoa_common>:
    2ac8:	fb 01       	movw	r30, r22
    2aca:	55 27       	eor	r21, r21
    2acc:	aa 27       	eor	r26, r26
    2ace:	88 0f       	add	r24, r24
    2ad0:	99 1f       	adc	r25, r25
    2ad2:	aa 1f       	adc	r26, r26
    2ad4:	a4 17       	cp	r26, r20
    2ad6:	10 f0       	brcs	.+4      	; 0x2adc <__utoa_common+0x14>
    2ad8:	a4 1b       	sub	r26, r20
    2ada:	83 95       	inc	r24
    2adc:	50 51       	subi	r21, 0x10	; 16
    2ade:	b9 f7       	brne	.-18     	; 0x2ace <__utoa_common+0x6>
    2ae0:	a0 5d       	subi	r26, 0xD0	; 208
    2ae2:	aa 33       	cpi	r26, 0x3A	; 58
    2ae4:	08 f0       	brcs	.+2      	; 0x2ae8 <__utoa_common+0x20>
    2ae6:	a9 5d       	subi	r26, 0xD9	; 217
    2ae8:	a1 93       	st	Z+, r26
    2aea:	00 97       	sbiw	r24, 0x00	; 0
    2aec:	79 f7       	brne	.-34     	; 0x2acc <__utoa_common+0x4>
    2aee:	b1 11       	cpse	r27, r1
    2af0:	b1 93       	st	Z+, r27
    2af2:	11 92       	st	Z+, r1
    2af4:	cb 01       	movw	r24, r22
    2af6:	00 c0       	rjmp	.+0      	; 0x2af8 <strrev>

00002af8 <strrev>:
    2af8:	dc 01       	movw	r26, r24
    2afa:	fc 01       	movw	r30, r24
    2afc:	67 2f       	mov	r22, r23
    2afe:	71 91       	ld	r23, Z+
    2b00:	77 23       	and	r23, r23
    2b02:	e1 f7       	brne	.-8      	; 0x2afc <strrev+0x4>
    2b04:	32 97       	sbiw	r30, 0x02	; 2
    2b06:	04 c0       	rjmp	.+8      	; 0x2b10 <strrev+0x18>
    2b08:	7c 91       	ld	r23, X
    2b0a:	6d 93       	st	X+, r22
    2b0c:	70 83       	st	Z, r23
    2b0e:	62 91       	ld	r22, -Z
    2b10:	ae 17       	cp	r26, r30
    2b12:	bf 07       	cpc	r27, r31
    2b14:	c8 f3       	brcs	.-14     	; 0x2b08 <strrev+0x10>
    2b16:	08 95       	ret

00002b18 <_exit>:
    2b18:	f8 94       	cli

00002b1a <__stop_program>:
    2b1a:	ff cf       	rjmp	.-2      	; 0x2b1a <__stop_program>
